SF:/workspaces/artcode/cli/src/main.rs
FN:30,_RNvCsgoaOFx8fQMi_3art10run_prompt
FN:10,_RNvCsgoaOFx8fQMi_3art15run_with_source
FN:40,_RNvCsgoaOFx8fQMi_3art4main
FN:28,_RNvCsgoaOFx8fQMi_3art8run_file
FNDA:0,_RNvCsgoaOFx8fQMi_3art10run_prompt
FNDA:0,_RNvCsgoaOFx8fQMi_3art15run_with_source
FNDA:0,_RNvCsgoaOFx8fQMi_3art4main
FNDA:0,_RNvCsgoaOFx8fQMi_3art8run_file
FNF:4
FNH:0
DA:10,0
DA:11,0
DA:12,0
DA:13,0
DA:14,0
DA:15,0
DA:16,0
DA:17,0
DA:18,0
DA:19,0
DA:20,0
DA:21,0
DA:22,0
DA:24,0
DA:25,0
DA:26,0
DA:28,0
DA:30,0
DA:32,0
DA:33,0
DA:34,0
DA:35,0
DA:36,0
DA:38,0
DA:40,0
DA:41,0
DA:42,0
DA:43,0
DA:44,0
DA:45,0
DA:46,0
DA:47,0
DA:48,0
DA:49,0
DA:50,0
DA:51,0
DA:52,0
DA:53,0
DA:54,0
DA:55,0
DA:56,0
DA:57,0
DA:58,0
DA:60,0
DA:61,0
DA:62,0
DA:63,0
DA:64,0
DA:65,0
DA:68,0
DA:70,0
DA:71,0
DA:72,0
DA:73,0
DA:74,0
BRF:0
BRH:0
LF:55
LH:0
end_of_record
SF:/workspaces/artcode/crates/core/src/ast.rs
FN:249,_RNvMs6_NtCsijTo3DDQ5Pc_4core3astNtB5_8ArtValue4noneCsgnfSBNb3gVx_11interpreter
FN:201,_RNCNvXs2_NtCsijTo3DDQ5Pc_4core3astNtB7_8ArtValueNtNtCs66KPHxksi63_4core3fmt7Display3fmt0B9_
FN:213,_RNCNvXs2_NtCsijTo3DDQ5Pc_4core3astNtB7_8ArtValueNtNtCs66KPHxksi63_4core3fmt7Display3fmts0_0B9_
FN:206,_RNCNvXs2_NtCsijTo3DDQ5Pc_4core3astNtB7_8ArtValueNtNtCs66KPHxksi63_4core3fmt7Display3fmts_0B9_
FN:132,_RNvXNtCsijTo3DDQ5Pc_4core3astNtB2_8FunctionNtNtCs66KPHxksi63_4core3fmt5Debug3fmt
FN:185,_RNvXs0_NtCsijTo3DDQ5Pc_4core3astNtB5_9BuiltinFnNtNtCs66KPHxksi63_4core3fmt5Debug3fmt
FN:187,_RNvXs1_NtCsijTo3DDQ5Pc_4core3astNtB5_9BuiltinFnNtNtCs66KPHxksi63_4core3cmp9PartialEq2eq
FN:190,_RNvXs2_NtCsijTo3DDQ5Pc_4core3astNtB5_8ArtValueNtNtCs66KPHxksi63_4core3fmt7Display3fmt
FN:230,_RNvXs3_NtCsijTo3DDQ5Pc_4core3astNtB5_8ArtValueINtNtCs66KPHxksi63_4core7convert4FrombE4from
FN:236,_RNvXs4_NtCsijTo3DDQ5Pc_4core3astNtB5_8ArtValueINtNtCs66KPHxksi63_4core7convert4FromdE4from
FN:242,_RNvXs5_NtCsijTo3DDQ5Pc_4core3astNtB5_8ArtValueINtNtCs66KPHxksi63_4core7convert4FromxE4from
FN:139,_RNvXs_NtCsijTo3DDQ5Pc_4core3astNtB4_8FunctionNtNtCs66KPHxksi63_4core3cmp9PartialEq2eq
FN:201,_RNCNvXs2_NtCsffwFgLclbQY_4core3astNtB7_8ArtValueNtNtCs66KPHxksi63_4core3fmt7Display3fmt0B9_
FN:213,_RNCNvXs2_NtCsffwFgLclbQY_4core3astNtB7_8ArtValueNtNtCs66KPHxksi63_4core3fmt7Display3fmts0_0B9_
FN:206,_RNCNvXs2_NtCsffwFgLclbQY_4core3astNtB7_8ArtValueNtNtCs66KPHxksi63_4core3fmt7Display3fmts_0B9_
FN:249,_RNvMs6_NtCsffwFgLclbQY_4core3astNtB5_8ArtValue4noneB7_
FN:132,_RNvXNtCsffwFgLclbQY_4core3astNtB2_8FunctionNtNtCs66KPHxksi63_4core3fmt5Debug3fmt
FN:185,_RNvXs0_NtCsffwFgLclbQY_4core3astNtB5_9BuiltinFnNtNtCs66KPHxksi63_4core3fmt5Debug3fmt
FN:187,_RNvXs1_NtCsffwFgLclbQY_4core3astNtB5_9BuiltinFnNtNtCs66KPHxksi63_4core3cmp9PartialEq2eq
FN:190,_RNvXs2_NtCsffwFgLclbQY_4core3astNtB5_8ArtValueNtNtCs66KPHxksi63_4core3fmt7Display3fmt
FN:230,_RNvXs3_NtCsffwFgLclbQY_4core3astNtB5_8ArtValueINtNtCs66KPHxksi63_4core7convert4FrombE4from
FN:236,_RNvXs4_NtCsffwFgLclbQY_4core3astNtB5_8ArtValueINtNtCs66KPHxksi63_4core7convert4FromdE4from
FN:242,_RNvXs5_NtCsffwFgLclbQY_4core3astNtB5_8ArtValueINtNtCs66KPHxksi63_4core7convert4FromxE4from
FN:139,_RNvXs_NtCsffwFgLclbQY_4core3astNtB4_8FunctionNtNtCs66KPHxksi63_4core3cmp9PartialEq2eq
FN:249,_RNvMs6_NtCsijTo3DDQ5Pc_4core3astNtB5_8ArtValue4noneCs3zNnppwu0wb_6parser
FNDA:28,_RNvMs6_NtCsijTo3DDQ5Pc_4core3astNtB5_8ArtValue4noneCsgnfSBNb3gVx_11interpreter
FNDA:0,_RNCNvXs2_NtCsijTo3DDQ5Pc_4core3astNtB7_8ArtValueNtNtCs66KPHxksi63_4core3fmt7Display3fmt0B9_
FNDA:0,_RNCNvXs2_NtCsijTo3DDQ5Pc_4core3astNtB7_8ArtValueNtNtCs66KPHxksi63_4core3fmt7Display3fmts0_0B9_
FNDA:0,_RNCNvXs2_NtCsijTo3DDQ5Pc_4core3astNtB7_8ArtValueNtNtCs66KPHxksi63_4core3fmt7Display3fmts_0B9_
FNDA:0,_RNvXNtCsijTo3DDQ5Pc_4core3astNtB2_8FunctionNtNtCs66KPHxksi63_4core3fmt5Debug3fmt
FNDA:0,_RNvXs0_NtCsijTo3DDQ5Pc_4core3astNtB5_9BuiltinFnNtNtCs66KPHxksi63_4core3fmt5Debug3fmt
FNDA:0,_RNvXs1_NtCsijTo3DDQ5Pc_4core3astNtB5_9BuiltinFnNtNtCs66KPHxksi63_4core3cmp9PartialEq2eq
FNDA:25,_RNvXs2_NtCsijTo3DDQ5Pc_4core3astNtB5_8ArtValueNtNtCs66KPHxksi63_4core3fmt7Display3fmt
FNDA:0,_RNvXs3_NtCsijTo3DDQ5Pc_4core3astNtB5_8ArtValueINtNtCs66KPHxksi63_4core7convert4FrombE4from
FNDA:0,_RNvXs4_NtCsijTo3DDQ5Pc_4core3astNtB5_8ArtValueINtNtCs66KPHxksi63_4core7convert4FromdE4from
FNDA:0,_RNvXs5_NtCsijTo3DDQ5Pc_4core3astNtB5_8ArtValueINtNtCs66KPHxksi63_4core7convert4FromxE4from
FNDA:0,_RNvXs_NtCsijTo3DDQ5Pc_4core3astNtB4_8FunctionNtNtCs66KPHxksi63_4core3cmp9PartialEq2eq
FNDA:0,_RNCNvXs2_NtCsffwFgLclbQY_4core3astNtB7_8ArtValueNtNtCs66KPHxksi63_4core3fmt7Display3fmt0B9_
FNDA:0,_RNCNvXs2_NtCsffwFgLclbQY_4core3astNtB7_8ArtValueNtNtCs66KPHxksi63_4core3fmt7Display3fmts0_0B9_
FNDA:0,_RNCNvXs2_NtCsffwFgLclbQY_4core3astNtB7_8ArtValueNtNtCs66KPHxksi63_4core3fmt7Display3fmts_0B9_
FNDA:0,_RNvMs6_NtCsffwFgLclbQY_4core3astNtB5_8ArtValue4noneB7_
FNDA:0,_RNvXNtCsffwFgLclbQY_4core3astNtB2_8FunctionNtNtCs66KPHxksi63_4core3fmt5Debug3fmt
FNDA:0,_RNvXs0_NtCsffwFgLclbQY_4core3astNtB5_9BuiltinFnNtNtCs66KPHxksi63_4core3fmt5Debug3fmt
FNDA:0,_RNvXs1_NtCsffwFgLclbQY_4core3astNtB5_9BuiltinFnNtNtCs66KPHxksi63_4core3cmp9PartialEq2eq
FNDA:0,_RNvXs2_NtCsffwFgLclbQY_4core3astNtB5_8ArtValueNtNtCs66KPHxksi63_4core3fmt7Display3fmt
FNDA:0,_RNvXs3_NtCsffwFgLclbQY_4core3astNtB5_8ArtValueINtNtCs66KPHxksi63_4core7convert4FrombE4from
FNDA:0,_RNvXs4_NtCsffwFgLclbQY_4core3astNtB5_8ArtValueINtNtCs66KPHxksi63_4core7convert4FromdE4from
FNDA:0,_RNvXs5_NtCsffwFgLclbQY_4core3astNtB5_8ArtValueINtNtCs66KPHxksi63_4core7convert4FromxE4from
FNDA:0,_RNvXs_NtCsffwFgLclbQY_4core3astNtB4_8FunctionNtNtCs66KPHxksi63_4core3cmp9PartialEq2eq
FNDA:1,_RNvMs6_NtCsijTo3DDQ5Pc_4core3astNtB5_8ArtValue4noneCs3zNnppwu0wb_6parser
FNF:12
FNH:2
DA:132,0
DA:133,0
DA:134,0
DA:135,0
DA:139,0
DA:140,0
DA:141,0
DA:185,0
DA:187,0
DA:190,25
DA:191,25
DA:192,10
DA:193,0
DA:194,13
DA:195,0
DA:196,2
DA:197,0
DA:198,2
DA:200,0
DA:201,0
DA:202,0
DA:204,0
DA:205,0
DA:206,0
DA:207,0
DA:209,0
DA:210,0
DA:211,0
DA:213,0
DA:214,0
DA:217,0
DA:218,0
DA:219,0
DA:221,0
DA:222,0
DA:223,0
DA:224,0
DA:226,25
DA:230,0
DA:231,0
DA:232,0
DA:236,0
DA:237,0
DA:238,0
DA:242,0
DA:243,0
DA:244,0
DA:249,29
BRF:0
BRH:0
LF:51
LH:8
end_of_record
SF:/workspaces/artcode/crates/core/src/environment.rs
FN:42,_RNvMNtCsijTo3DDQ5Pc_4core11environmentNtB2_11Environment3get
FN:15,_RNvMNtCsijTo3DDQ5Pc_4core11environmentNtB2_11Environment3new
FN:19,_RNvMNtCsijTo3DDQ5Pc_4core11environmentNtB2_11Environment6define
FN:28,_RNCNvMNtCsijTo3DDQ5Pc_4core11environmentNtB4_11Environment6define0B6_
FN:28,_RNCNvMNtCsffwFgLclbQY_4core11environmentNtB4_11Environment6define0B6_
FN:42,_RNvMNtCsffwFgLclbQY_4core11environmentNtB2_11Environment3get
FN:15,_RNvMNtCsffwFgLclbQY_4core11environmentNtB2_11Environment3new
FN:19,_RNvMNtCsffwFgLclbQY_4core11environmentNtB2_11Environment6define
FNDA:125,_RNvMNtCsijTo3DDQ5Pc_4core11environmentNtB2_11Environment3get
FNDA:65,_RNvMNtCsijTo3DDQ5Pc_4core11environmentNtB2_11Environment3new
FNDA:352,_RNvMNtCsijTo3DDQ5Pc_4core11environmentNtB2_11Environment6define
FNDA:1,_RNCNvMNtCsijTo3DDQ5Pc_4core11environmentNtB4_11Environment6define0B6_
FNDA:0,_RNCNvMNtCsffwFgLclbQY_4core11environmentNtB4_11Environment6define0B6_
FNDA:0,_RNvMNtCsffwFgLclbQY_4core11environmentNtB2_11Environment3get
FNDA:0,_RNvMNtCsffwFgLclbQY_4core11environmentNtB2_11Environment3new
FNDA:0,_RNvMNtCsffwFgLclbQY_4core11environmentNtB2_11Environment6define
FNF:4
FNH:4
DA:15,65
DA:16,65
DA:17,65
DA:19,352
DA:20,352
DA:26,352
DA:27,1
DA:28,1
DA:29,1
DA:30,1
DA:31,0
DA:32,351
DA:34,352
DA:35,22
DA:36,330
DA:39,352
DA:40,352
DA:42,125
DA:43,125
DA:44,81
DA:45,44
DA:46,44
DA:47,44
DA:48,0
DA:49,0
DA:50,125
BRF:0
BRH:0
LF:27
LH:24
end_of_record
SF:/workspaces/artcode/crates/core/src/interner.rs
FN:4,_RNvNtCsijTo3DDQ5Pc_4core8interner4pool
FN:12,_RNvNtCsijTo3DDQ5Pc_4core8interner6intern
FN:6,_RNCNvNtCsijTo3DDQ5Pc_4core8interner4pool0B5_
FN:6,_RNCNvNtCsffwFgLclbQY_4core8interner4pool0B5_
FN:4,_RNvNtCsffwFgLclbQY_4core8interner4pool
FN:12,_RNvNtCsffwFgLclbQY_4core8interner6intern
FNDA:668,_RNvNtCsijTo3DDQ5Pc_4core8interner4pool
FNDA:668,_RNvNtCsijTo3DDQ5Pc_4core8interner6intern
FNDA:18,_RNCNvNtCsijTo3DDQ5Pc_4core8interner4pool0B5_
FNDA:0,_RNCNvNtCsffwFgLclbQY_4core8interner4pool0B5_
FNDA:0,_RNvNtCsffwFgLclbQY_4core8interner4pool
FNDA:0,_RNvNtCsffwFgLclbQY_4core8interner6intern
FNF:3
FNH:3
DA:4,668
DA:6,668
DA:7,668
DA:12,668
DA:13,668
DA:14,668
DA:15,232
DA:16,232
DA:17,232
DA:18,668
BRF:0
BRH:0
LF:11
LH:11
end_of_record
SF:/workspaces/artcode/crates/core/src/token.rs
FN:68,_RNvMNtCsijTo3DDQ5Pc_4core5tokenNtB2_5Token3new
FN:74,_RNvMNtCsijTo3DDQ5Pc_4core5tokenNtB2_5Token5dummy
FN:80,_RNvXs_NtCsijTo3DDQ5Pc_4core5tokenNtB4_5TokenNtNtCs66KPHxksi63_4core3fmt7Display3fmt
FN:70,_RNCNvMNtCsijTo3DDQ5Pc_4core5tokenNtB4_5Token3new0B6_
FN:70,_RNCNvMNtCsffwFgLclbQY_4core5tokenNtB4_5Token3new0B6_
FN:68,_RNvMNtCsffwFgLclbQY_4core5tokenNtB2_5Token3new
FN:74,_RNvMNtCsffwFgLclbQY_4core5tokenNtB2_5Token5dummy
FN:80,_RNvXs_NtCsffwFgLclbQY_4core5tokenNtB4_5TokenNtNtCs66KPHxksi63_4core3fmt7Display3fmt
FNDA:829,_RNvMNtCsijTo3DDQ5Pc_4core5tokenNtB2_5Token3new
FNDA:137,_RNvMNtCsijTo3DDQ5Pc_4core5tokenNtB2_5Token5dummy
FNDA:0,_RNvXs_NtCsijTo3DDQ5Pc_4core5tokenNtB4_5TokenNtNtCs66KPHxksi63_4core3fmt7Display3fmt
FNDA:316,_RNCNvMNtCsijTo3DDQ5Pc_4core5tokenNtB4_5Token3new0B6_
FNDA:0,_RNCNvMNtCsffwFgLclbQY_4core5tokenNtB4_5Token3new0B6_
FNDA:0,_RNvMNtCsffwFgLclbQY_4core5tokenNtB2_5Token3new
FNDA:0,_RNvMNtCsffwFgLclbQY_4core5tokenNtB2_5Token5dummy
FNDA:0,_RNvXs_NtCsffwFgLclbQY_4core5tokenNtB4_5TokenNtNtCs66KPHxksi63_4core3fmt7Display3fmt
FNF:4
FNH:3
DA:68,829
DA:69,829
DA:70,829
DA:71,829
DA:72,829
DA:74,137
DA:75,137
DA:76,137
DA:80,0
DA:81,0
DA:82,0
BRF:0
BRH:0
LF:12
LH:9
end_of_record
SF:/workspaces/artcode/crates/core/src/types.rs
FN:29,_RNCNvMNtCsijTo3DDQ5Pc_4core5typesNtB4_4Type4name0B6_
FN:34,_RNCNvMNtCsijTo3DDQ5Pc_4core5typesNtB4_4Type4names_0B6_
FN:18,_RNvMNtCsijTo3DDQ5Pc_4core5typesNtB2_4Type4name
FN:29,_RNCNvMNtCsffwFgLclbQY_4core5typesNtB4_4Type4name0B6_
FN:34,_RNCNvMNtCsffwFgLclbQY_4core5typesNtB4_4Type4names_0B6_
FN:18,_RNvMNtCsffwFgLclbQY_4core5typesNtB2_4Type4name
FNDA:0,_RNCNvMNtCsijTo3DDQ5Pc_4core5typesNtB4_4Type4name0B6_
FNDA:0,_RNCNvMNtCsijTo3DDQ5Pc_4core5typesNtB4_4Type4names_0B6_
FNDA:0,_RNvMNtCsijTo3DDQ5Pc_4core5typesNtB2_4Type4name
FNDA:0,_RNCNvMNtCsffwFgLclbQY_4core5typesNtB4_4Type4name0B6_
FNDA:0,_RNCNvMNtCsffwFgLclbQY_4core5typesNtB4_4Type4names_0B6_
FNDA:0,_RNvMNtCsffwFgLclbQY_4core5typesNtB2_4Type4name
FNF:3
FNH:0
DA:18,0
DA:19,0
DA:20,0
DA:21,0
DA:22,0
DA:23,0
DA:24,0
DA:25,0
DA:26,0
DA:27,0
DA:28,0
DA:29,0
DA:30,0
DA:32,0
DA:33,0
DA:34,0
DA:35,0
DA:37,0
DA:39,0
BRF:0
BRH:0
LF:21
LH:0
end_of_record
SF:/workspaces/artcode/crates/diagnostics/src/lib.rs
FN:34,_RINvMs_Csc9Vg6lNVgov_11diagnosticsNtB5_10Diagnostic3newNtNtCs8Ty2CzGA6U3_5alloc6string6StringECsgnfSBNb3gVx_11interpreter
FN:34,_RINvMs_Csc9Vg6lNVgov_11diagnosticsNtB5_10Diagnostic3newReECsgnfSBNb3gVx_11interpreter
FN:48,_RNvCsc9Vg6lNVgov_11diagnostics17format_diagnostic
FN:10,_RNvMCsc9Vg6lNVgov_11diagnosticsNtB2_4Span3new
FN:13,_RNvMCsc9Vg6lNVgov_11diagnosticsNtB2_4Span5dummy
FN:34,_RINvMs_Csc9Vg6lNVgov_11diagnosticsNtB5_10Diagnostic3newNtNtCs8Ty2CzGA6U3_5alloc6string6StringECs3zNnppwu0wb_6parser
FN:34,_RINvMs_Csc9Vg6lNVgov_11diagnosticsNtB5_10Diagnostic3newReECsinUcxRFaGSm_5lexer
FN:67,_RINvCsc4l2tyO2FcF_11diagnostics5errorpEB2_
FN:34,_RINvMs_Csc4l2tyO2FcF_11diagnosticsNtB5_10Diagnostic3newpEB5_
FN:37,_RINvMs_Csc4l2tyO2FcF_11diagnosticsNtB5_10Diagnostic4notepEB5_
FN:41,_RINvMs_Csc4l2tyO2FcF_11diagnosticsNtB5_10Diagnostic6simplepEB5_
FN:48,_RNvCsc4l2tyO2FcF_11diagnostics17format_diagnostic
FN:10,_RNvMCsc4l2tyO2FcF_11diagnosticsNtB2_4Span3new
FN:13,_RNvMCsc4l2tyO2FcF_11diagnosticsNtB2_4Span5dummy
FNDA:8,_RINvMs_Csc9Vg6lNVgov_11diagnosticsNtB5_10Diagnostic3newNtNtCs8Ty2CzGA6U3_5alloc6string6StringECsgnfSBNb3gVx_11interpreter
FNDA:0,_RINvMs_Csc9Vg6lNVgov_11diagnosticsNtB5_10Diagnostic3newReECsgnfSBNb3gVx_11interpreter
FNDA:0,_RNvCsc9Vg6lNVgov_11diagnostics17format_diagnostic
FNDA:14,_RNvMCsc9Vg6lNVgov_11diagnosticsNtB2_4Span3new
FNDA:0,_RNvMCsc9Vg6lNVgov_11diagnosticsNtB2_4Span5dummy
FNDA:1,_RINvMs_Csc9Vg6lNVgov_11diagnosticsNtB5_10Diagnostic3newNtNtCs8Ty2CzGA6U3_5alloc6string6StringECs3zNnppwu0wb_6parser
FNDA:5,_RINvMs_Csc9Vg6lNVgov_11diagnosticsNtB5_10Diagnostic3newReECsinUcxRFaGSm_5lexer
FNDA:0,_RINvCsc4l2tyO2FcF_11diagnostics5errorpEB2_
FNDA:0,_RINvMs_Csc4l2tyO2FcF_11diagnosticsNtB5_10Diagnostic3newpEB5_
FNDA:0,_RINvMs_Csc4l2tyO2FcF_11diagnosticsNtB5_10Diagnostic4notepEB5_
FNDA:0,_RINvMs_Csc4l2tyO2FcF_11diagnosticsNtB5_10Diagnostic6simplepEB5_
FNDA:0,_RNvCsc4l2tyO2FcF_11diagnostics17format_diagnostic
FNDA:0,_RNvMCsc4l2tyO2FcF_11diagnosticsNtB2_4Span3new
FNDA:0,_RNvMCsc4l2tyO2FcF_11diagnosticsNtB2_4Span5dummy
FNF:7
FNH:2
DA:10,14
DA:11,14
DA:12,14
DA:13,0
DA:34,14
DA:35,14
DA:36,14
DA:37,0
DA:38,0
DA:39,0
DA:40,0
DA:41,0
DA:42,0
DA:43,0
DA:48,0
DA:49,0
DA:50,0
DA:51,0
DA:53,0
DA:54,0
DA:55,0
DA:56,0
DA:57,0
DA:58,0
DA:59,0
DA:60,0
DA:61,0
DA:62,0
DA:63,0
DA:64,0
DA:67,0
DA:68,0
DA:69,0
BRF:0
BRH:0
LF:33
LH:6
end_of_record
SF:/workspaces/artcode/crates/interpreter/src/field_access.rs
FN:31,_RNvNtCsgnfSBNb3gVx_11interpreter12field_access11enum_method
FN:8,_RNvNtCsgnfSBNb3gVx_11interpreter12field_access22struct_field_or_method
FN:41,_RNCNvNtCsgnfSBNb3gVx_11interpreter12field_access11enum_method0B5_
FN:20,_RNCNvNtCsgnfSBNb3gVx_11interpreter12field_access22struct_field_or_method0B5_
FN:41,_RNCNvNtCshCRlEur9CrX_11interpreter12field_access11enum_method0B5_
FN:20,_RNCNvNtCshCRlEur9CrX_11interpreter12field_access22struct_field_or_method0B5_
FN:31,_RNvNtCshCRlEur9CrX_11interpreter12field_access11enum_method
FN:8,_RNvNtCshCRlEur9CrX_11interpreter12field_access22struct_field_or_method
FNDA:4,_RNvNtCsgnfSBNb3gVx_11interpreter12field_access11enum_method
FNDA:3,_RNvNtCsgnfSBNb3gVx_11interpreter12field_access22struct_field_or_method
FNDA:4,_RNCNvNtCsgnfSBNb3gVx_11interpreter12field_access11enum_method0B5_
FNDA:2,_RNCNvNtCsgnfSBNb3gVx_11interpreter12field_access22struct_field_or_method0B5_
FNDA:0,_RNCNvNtCshCRlEur9CrX_11interpreter12field_access11enum_method0B5_
FNDA:0,_RNCNvNtCshCRlEur9CrX_11interpreter12field_access22struct_field_or_method0B5_
FNDA:0,_RNvNtCshCRlEur9CrX_11interpreter12field_access11enum_method
FNDA:0,_RNvNtCshCRlEur9CrX_11interpreter12field_access22struct_field_or_method
FNF:4
FNH:4
DA:8,3
DA:9,3
DA:10,3
DA:11,3
DA:12,3
DA:13,3
DA:14,3
DA:15,1
DA:16,2
DA:17,2
DA:18,2
DA:19,2
DA:20,2
DA:21,2
DA:22,2
DA:23,2
DA:24,2
DA:25,2
DA:26,2
DA:27,0
DA:28,0
DA:29,3
DA:31,4
DA:32,4
DA:33,4
DA:34,4
DA:35,4
DA:36,4
DA:37,4
DA:38,4
DA:39,4
DA:40,4
DA:41,4
DA:42,4
DA:43,4
DA:44,4
DA:45,4
DA:46,4
DA:47,4
DA:48,0
DA:49,0
DA:50,4
BRF:0
BRH:0
LF:44
LH:40
end_of_record
SF:/workspaces/artcode/crates/interpreter/src/fstring.rs
FN:4,_RINvNtCsgnfSBNb3gVx_11interpreter7fstring12eval_fstringNCNvMNtB4_11interpreterNtBW_11Interpreter8evaluate0EB4_
FN:5,_RNCINvNtCsgnfSBNb3gVx_11interpreter7fstring12eval_fstringNCNvMNtB6_11interpreterNtBY_11Interpreter8evaluate0E0B6_
FN:4,_RINvNtCshCRlEur9CrX_11interpreter7fstring12eval_fstringpEB4_
FN:5,_RNCINvNtCshCRlEur9CrX_11interpreter7fstring12eval_fstringpE0B6_
FNDA:5,_RINvNtCsgnfSBNb3gVx_11interpreter7fstring12eval_fstringNCNvMNtB4_11interpreterNtBW_11Interpreter8evaluate0EB4_
FNDA:22,_RNCINvNtCsgnfSBNb3gVx_11interpreter7fstring12eval_fstringNCNvMNtB6_11interpreterNtBY_11Interpreter8evaluate0E0B6_
FNDA:0,_RINvNtCshCRlEur9CrX_11interpreter7fstring12eval_fstringpEB4_
FNDA:0,_RNCINvNtCshCRlEur9CrX_11interpreter7fstring12eval_fstringpE0B6_
FNF:2
FNH:2
DA:4,5
DA:5,22
DA:6,5
DA:7,27
DA:8,22
DA:9,11
DA:10,11
DA:11,11
DA:12,11
DA:13,11
DA:14,5
DA:15,5
DA:16,4
DA:17,3
DA:18,2
DA:19,2
DA:20,1
DA:21,1
DA:22,1
DA:24,1
DA:25,1
DA:27,0
DA:29,6
DA:30,11
DA:34,5
DA:35,5
BRF:0
BRH:0
LF:27
LH:26
end_of_record
SF:/workspaces/artcode/crates/interpreter/src/heap.rs
FN:22,_RNvMNtCsgnfSBNb3gVx_11interpreter4heapNtB2_10HeapObject10dec_strong
FN:21,_RNvMNtCsgnfSBNb3gVx_11interpreter4heapNtB2_10HeapObject10inc_strong
FN:20,_RNvMNtCsgnfSBNb3gVx_11interpreter4heapNtB2_10HeapObject12new_in_arena
FN:19,_RNvMNtCsgnfSBNb3gVx_11interpreter4heapNtB2_10HeapObject3new
FN:25,_RNvMNtCsgnfSBNb3gVx_11interpreter4heapNtB2_10HeapObject7upgrade
FN:24,_RNvMNtCsgnfSBNb3gVx_11interpreter4heapNtB2_10HeapObject8dec_weak
FN:23,_RNvMNtCsgnfSBNb3gVx_11interpreter4heapNtB2_10HeapObject8inc_weak
FN:22,_RNvMNtCshCRlEur9CrX_11interpreter4heapNtB2_10HeapObject10dec_strong
FN:21,_RNvMNtCshCRlEur9CrX_11interpreter4heapNtB2_10HeapObject10inc_strong
FN:20,_RNvMNtCshCRlEur9CrX_11interpreter4heapNtB2_10HeapObject12new_in_arena
FN:19,_RNvMNtCshCRlEur9CrX_11interpreter4heapNtB2_10HeapObject3new
FN:25,_RNvMNtCshCRlEur9CrX_11interpreter4heapNtB2_10HeapObject7upgrade
FN:24,_RNvMNtCshCRlEur9CrX_11interpreter4heapNtB2_10HeapObject8dec_weak
FN:23,_RNvMNtCshCRlEur9CrX_11interpreter4heapNtB2_10HeapObject8inc_weak
FNDA:12,_RNvMNtCsgnfSBNb3gVx_11interpreter4heapNtB2_10HeapObject10dec_strong
FNDA:2,_RNvMNtCsgnfSBNb3gVx_11interpreter4heapNtB2_10HeapObject10inc_strong
FNDA:2,_RNvMNtCsgnfSBNb3gVx_11interpreter4heapNtB2_10HeapObject12new_in_arena
FNDA:34,_RNvMNtCsgnfSBNb3gVx_11interpreter4heapNtB2_10HeapObject3new
FNDA:0,_RNvMNtCsgnfSBNb3gVx_11interpreter4heapNtB2_10HeapObject7upgrade
FNDA:0,_RNvMNtCsgnfSBNb3gVx_11interpreter4heapNtB2_10HeapObject8dec_weak
FNDA:5,_RNvMNtCsgnfSBNb3gVx_11interpreter4heapNtB2_10HeapObject8inc_weak
FNDA:0,_RNvMNtCshCRlEur9CrX_11interpreter4heapNtB2_10HeapObject10dec_strong
FNDA:0,_RNvMNtCshCRlEur9CrX_11interpreter4heapNtB2_10HeapObject10inc_strong
FNDA:0,_RNvMNtCshCRlEur9CrX_11interpreter4heapNtB2_10HeapObject12new_in_arena
FNDA:0,_RNvMNtCshCRlEur9CrX_11interpreter4heapNtB2_10HeapObject3new
FNDA:0,_RNvMNtCshCRlEur9CrX_11interpreter4heapNtB2_10HeapObject7upgrade
FNDA:0,_RNvMNtCshCRlEur9CrX_11interpreter4heapNtB2_10HeapObject8dec_weak
FNDA:0,_RNvMNtCshCRlEur9CrX_11interpreter4heapNtB2_10HeapObject8inc_weak
FNF:7
FNH:5
DA:19,34
DA:20,2
DA:21,2
DA:22,12
DA:23,5
DA:24,0
DA:25,0
BRF:0
BRH:0
LF:7
LH:5
end_of_record
SF:/workspaces/artcode/crates/interpreter/src/interpreter.rs
FN:817,_RNvMNtCsgnfSBNb3gVx_11interpreter11interpreterNtB2_11Interpreter11handle_call
FN:869,_RNvMNtCsgnfSBNb3gVx_11interpreter11interpreterNtB2_11Interpreter12call_builtin
FN:239,_RNvMNtCsgnfSBNb3gVx_11interpreter11interpreterNtB2_11Interpreter12cycle_report
FN:53,_RNvMNtCsgnfSBNb3gVx_11interpreter11interpreterNtB2_11Interpreter12with_prelude
FN:1010,_RNvMNtCsgnfSBNb3gVx_11interpreter11interpreterNtB2_11Interpreter13call_fallback
FN:830,_RNvMNtCsgnfSBNb3gVx_11interpreter11interpreterNtB2_11Interpreter13call_function
FN:474,_RNvMNtCsgnfSBNb3gVx_11interpreter11interpreterNtB2_11Interpreter13execute_block
FN:84,_RNvMNtCsgnfSBNb3gVx_11interpreter11interpreterNtB2_11Interpreter13heap_register
FN:118,_RNvMNtCsgnfSBNb3gVx_11interpreter11interpreterNtB2_11Interpreter14finalize_arena
FN:96,_RNvMNtCsgnfSBNb3gVx_11interpreter11interpreterNtB2_11Interpreter15is_object_aliveB4_
FN:407,_RNvMNtCsgnfSBNb3gVx_11interpreter11interpreterNtB2_11Interpreter15pattern_matches
FN:236,_RNvMNtCsgnfSBNb3gVx_11interpreter11interpreterNtB2_11Interpreter16debug_get_global
FN:93,_RNvMNtCsgnfSBNb3gVx_11interpreter11interpreterNtB2_11Interpreter16heap_get_unowned
FN:78,_RNvMNtCsgnfSBNb3gVx_11interpreter11interpreterNtB2_11Interpreter16take_diagnostics
FN:228,_RNvMNtCsgnfSBNb3gVx_11interpreter11interpreterNtB2_11Interpreter17debug_heap_remove
FN:143,_RNvMNtCsgnfSBNb3gVx_11interpreter11interpreterNtB2_11Interpreter17dec_value_if_heap
FN:92,_RNvMNtCsgnfSBNb3gVx_11interpreter11interpreterNtB2_11Interpreter17heap_upgrade_weak
FN:106,_RNvMNtCsgnfSBNb3gVx_11interpreter11interpreterNtB2_11Interpreter17heapify_compositeB4_
FN:132,_RNvMNtCsgnfSBNb3gVx_11interpreter11interpreterNtB2_11Interpreter17resolve_compositeB4_
FN:90,_RNvMNtCsgnfSBNb3gVx_11interpreter11interpreterNtB2_11Interpreter18debug_create_arena
FN:235,_RNvMNtCsgnfSBNb3gVx_11interpreter11interpreterNtB2_11Interpreter19debug_define_global
FN:232,_RNvMNtCsgnfSBNb3gVx_11interpreter11interpreterNtB2_11Interpreter19debug_heap_inc_weak
FN:226,_RNvMNtCsgnfSBNb3gVx_11interpreter11interpreterNtB2_11Interpreter19debug_heap_register
FN:162,_RNvMNtCsgnfSBNb3gVx_11interpreter11interpreterNtB2_11Interpreter19dec_children_strongB4_
FN:146,_RNvMNtCsgnfSBNb3gVx_11interpreter11interpreterNtB2_11Interpreter19inc_children_strongB4_
FN:99,_RNvMNtCsgnfSBNb3gVx_11interpreter11interpreterNtB2_11Interpreter20note_composite_childB4_
FN:231,_RNvMNtCsgnfSBNb3gVx_11interpreter11interpreterNtB2_11Interpreter21debug_heap_dec_strong
FN:1004,_RNvMNtCsgnfSBNb3gVx_11interpreter11interpreterNtB2_11Interpreter22construct_enum_variant
FN:230,_RNvMNtCsgnfSBNb3gVx_11interpreter11interpreterNtB2_11Interpreter22debug_heap_get_unowned
FN:87,_RNvMNtCsgnfSBNb3gVx_11interpreter11interpreterNtB2_11Interpreter22heap_register_in_arena
FN:229,_RNvMNtCsgnfSBNb3gVx_11interpreter11interpreterNtB2_11Interpreter23debug_heap_upgrade_weak
FN:138,_RNvMNtCsgnfSBNb3gVx_11interpreter11interpreterNtB2_11Interpreter23drop_scope_heap_objects
FN:67,_RNvMNtCsgnfSBNb3gVx_11interpreter11interpreterNtB2_11Interpreter24register_struct_for_test
FN:177,_RNvMNtCsgnfSBNb3gVx_11interpreter11interpreterNtB2_11Interpreter27dec_object_strong_recursive
FN:38,_RNvMNtCsgnfSBNb3gVx_11interpreter11interpreterNtB2_11Interpreter3new
FN:265,_RNvMNtCsgnfSBNb3gVx_11interpreter11interpreterNtB2_11Interpreter7execute
FN:494,_RNvMNtCsgnfSBNb3gVx_11interpreter11interpreterNtB2_11Interpreter8evaluate
FN:1031,_RNvMNtCsgnfSBNb3gVx_11interpreter11interpreterNtB2_11Interpreter8is_equal
FN:71,_RNvMNtCsgnfSBNb3gVx_11interpreter11interpreterNtB2_11Interpreter9interpret
FN:1019,_RNvMNtCsgnfSBNb3gVx_11interpreter11interpreterNtB2_11Interpreter9is_truthy
FN:1103,_RNvMs_NtCsgnfSBNb3gVx_11interpreter11interpreterNtB4_11Interpreter13detect_cycles
FN:1179,_RNvMs_NtCsgnfSBNb3gVx_11interpreter11interpreterNtB4_11Interpreter18detect_cycles_json
FN:1207,_RNvMs_NtCsgnfSBNb3gVx_11interpreter11interpreterNtB4_11Interpreter25detect_cycles_json_pretty
FN:243,_RNvNvMNtCsgnfSBNb3gVx_11interpreter11interpreterNtB4_11Interpreter12cycle_report4scan
FN:1144,_RNvNvMs_NtCsgnfSBNb3gVx_11interpreter11interpreterNtB6_11Interpreter13detect_cycles13strongconnect
FN:1152,_RNvNvMs_NtCsgnfSBNb3gVx_11interpreter11interpreterNtB6_11Interpreter13detect_cycles3dfs
FN:1108,_RNvNvMs_NtCsgnfSBNb3gVx_11interpreter11interpreterNtB6_11Interpreter13detect_cycles8scan_ids
FN:1234,_RNvXs0_NtCsgnfSBNb3gVx_11interpreter11interpreterNtB5_11InterpreterNtNtCs66KPHxksi63_4core7default7Default7default
FN:1056,_RINvMNtCsgnfSBNb3gVx_11interpreter11interpreterNtB3_11Interpreter13binary_cmp_opNCNvB2_8evaluates2_0EB5_
FN:1056,_RINvMNtCsgnfSBNb3gVx_11interpreter11interpreterNtB3_11Interpreter13binary_cmp_opNCNvB2_8evaluates3_0EB5_
FN:1056,_RINvMNtCsgnfSBNb3gVx_11interpreter11interpreterNtB3_11Interpreter13binary_cmp_opNCNvB2_8evaluates4_0EB5_
FN:1056,_RINvMNtCsgnfSBNb3gVx_11interpreter11interpreterNtB3_11Interpreter13binary_cmp_opNCNvB2_8evaluates5_0EB5_
FN:1035,_RINvMNtCsgnfSBNb3gVx_11interpreter11interpreterNtB3_11Interpreter13binary_num_opNCNvB2_8evaluates0_0EB5_
FN:1035,_RINvMNtCsgnfSBNb3gVx_11interpreter11interpreterNtB3_11Interpreter13binary_num_opNCNvB2_8evaluates1_0EB5_
FN:1035,_RINvMNtCsgnfSBNb3gVx_11interpreter11interpreterNtB3_11Interpreter13binary_num_opNCNvB2_8evaluates_0EB5_
FN:1162,_RNCNCNCNvMs_NtCsgnfSBNb3gVx_11interpreter11interpreterNtBa_11Interpreter13detect_cycless4_000Bc_
FN:1161,_RNCNCNvMs_NtCsgnfSBNb3gVx_11interpreter11interpreterNtB8_11Interpreter13detect_cycless4_00Ba_
FN:1171,_RNCNCNvMs_NtCsgnfSBNb3gVx_11interpreter11interpreterNtB8_11Interpreter13detect_cycless5_00Ba_
FN:120,_RNCNvMNtCsgnfSBNb3gVx_11interpreter11interpreterNtB4_11Interpreter14finalize_arena0B6_
FN:93,_RNCNvMNtCsgnfSBNb3gVx_11interpreter11interpreterNtB4_11Interpreter16heap_get_unowned0B6_
FN:92,_RNCNvMNtCsgnfSBNb3gVx_11interpreter11interpreterNtB4_11Interpreter17heap_upgrade_weak0B6_
FN:208,_RNCNvMNtCsgnfSBNb3gVx_11interpreter11interpreterNtB4_11Interpreter27dec_object_strong_recursive0B6_
FN:323,_RNCNvMNtCsgnfSBNb3gVx_11interpreter11interpreterNtB4_11Interpreter7execute0B6_
FN:498,_RNCNvMNtCsgnfSBNb3gVx_11interpreter11interpreterNtB4_11Interpreter8evaluate0B6_
FN:585,_RNCNvMNtCsgnfSBNb3gVx_11interpreter11interpreterNtB4_11Interpreter8evaluates0_0B6_
FN:596,_RNCNvMNtCsgnfSBNb3gVx_11interpreter11interpreterNtB4_11Interpreter8evaluates1_0B6_
FN:599,_RNCNvMNtCsgnfSBNb3gVx_11interpreter11interpreterNtB4_11Interpreter8evaluates2_0B6_
FN:600,_RNCNvMNtCsgnfSBNb3gVx_11interpreter11interpreterNtB4_11Interpreter8evaluates3_0B6_
FN:601,_RNCNvMNtCsgnfSBNb3gVx_11interpreter11interpreterNtB4_11Interpreter8evaluates4_0B6_
FN:602,_RNCNvMNtCsgnfSBNb3gVx_11interpreter11interpreterNtB4_11Interpreter8evaluates5_0B6_
FN:650,_RNCNvMNtCsgnfSBNb3gVx_11interpreter11interpreterNtB4_11Interpreter8evaluates6_0B6_
FN:687,_RNCNvMNtCsgnfSBNb3gVx_11interpreter11interpreterNtB4_11Interpreter8evaluates7_0B6_
FN:584,_RNCNvMNtCsgnfSBNb3gVx_11interpreter11interpreterNtB4_11Interpreter8evaluates_0B6_
FN:1156,_RNCNvMs_NtCsgnfSBNb3gVx_11interpreter11interpreterNtB6_11Interpreter13detect_cycless2_0B8_
FN:1157,_RNCNvMs_NtCsgnfSBNb3gVx_11interpreter11interpreterNtB6_11Interpreter13detect_cycless3_0B8_
FN:1160,_RNCNvMs_NtCsgnfSBNb3gVx_11interpreter11interpreterNtB6_11Interpreter13detect_cycless4_0B8_
FN:1171,_RNCNvMs_NtCsgnfSBNb3gVx_11interpreter11interpreterNtB6_11Interpreter13detect_cycless5_0B8_
FN:1172,_RNCNvMs_NtCsgnfSBNb3gVx_11interpreter11interpreterNtB6_11Interpreter13detect_cycless6_0B8_
FN:1173,_RNCNvMs_NtCsgnfSBNb3gVx_11interpreter11interpreterNtB6_11Interpreter13detect_cycless7_0B8_
FN:1184,_RNCNvMs_NtCsgnfSBNb3gVx_11interpreter11interpreterNtB6_11Interpreter18detect_cycles_json0B8_
FN:1198,_RNCNvMs_NtCsgnfSBNb3gVx_11interpreter11interpreterNtB6_11Interpreter18detect_cycles_jsons0_0B8_
FN:1199,_RNCNvMs_NtCsgnfSBNb3gVx_11interpreter11interpreterNtB6_11Interpreter18detect_cycles_jsons1_0B8_
FN:1189,_RNCNvMs_NtCsgnfSBNb3gVx_11interpreter11interpreterNtB6_11Interpreter18detect_cycles_jsons2_0B8_
FN:1191,_RNCNvMs_NtCsgnfSBNb3gVx_11interpreter11interpreterNtB6_11Interpreter18detect_cycles_jsons3_0B8_
FN:1197,_RNCNvMs_NtCsgnfSBNb3gVx_11interpreter11interpreterNtB6_11Interpreter18detect_cycles_jsons_0B8_
FN:1056,_RINvMNtCshCRlEur9CrX_11interpreter11interpreterNtB3_11Interpreter13binary_cmp_oppEB5_
FN:1035,_RINvMNtCshCRlEur9CrX_11interpreter11interpreterNtB3_11Interpreter13binary_num_oppEB5_
FN:1162,_RNCNCNCNvMs_NtCshCRlEur9CrX_11interpreter11interpreterNtBa_11Interpreter13detect_cycless4_000Bc_
FN:1161,_RNCNCNvMs_NtCshCRlEur9CrX_11interpreter11interpreterNtB8_11Interpreter13detect_cycless4_00Ba_
FN:1171,_RNCNCNvMs_NtCshCRlEur9CrX_11interpreter11interpreterNtB8_11Interpreter13detect_cycless5_00Ba_
FN:120,_RNCNvMNtCshCRlEur9CrX_11interpreter11interpreterNtB4_11Interpreter14finalize_arena0B6_
FN:93,_RNCNvMNtCshCRlEur9CrX_11interpreter11interpreterNtB4_11Interpreter16heap_get_unowned0B6_
FN:92,_RNCNvMNtCshCRlEur9CrX_11interpreter11interpreterNtB4_11Interpreter17heap_upgrade_weak0B6_
FN:208,_RNCNvMNtCshCRlEur9CrX_11interpreter11interpreterNtB4_11Interpreter27dec_object_strong_recursive0B6_
FN:323,_RNCNvMNtCshCRlEur9CrX_11interpreter11interpreterNtB4_11Interpreter7execute0B6_
FN:498,_RNCNvMNtCshCRlEur9CrX_11interpreter11interpreterNtB4_11Interpreter8evaluate0B6_
FN:585,_RNCNvMNtCshCRlEur9CrX_11interpreter11interpreterNtB4_11Interpreter8evaluates0_0B6_
FN:596,_RNCNvMNtCshCRlEur9CrX_11interpreter11interpreterNtB4_11Interpreter8evaluates1_0B6_
FN:599,_RNCNvMNtCshCRlEur9CrX_11interpreter11interpreterNtB4_11Interpreter8evaluates2_0B6_
FN:600,_RNCNvMNtCshCRlEur9CrX_11interpreter11interpreterNtB4_11Interpreter8evaluates3_0B6_
FN:601,_RNCNvMNtCshCRlEur9CrX_11interpreter11interpreterNtB4_11Interpreter8evaluates4_0B6_
FN:602,_RNCNvMNtCshCRlEur9CrX_11interpreter11interpreterNtB4_11Interpreter8evaluates5_0B6_
FN:650,_RNCNvMNtCshCRlEur9CrX_11interpreter11interpreterNtB4_11Interpreter8evaluates6_0B6_
FN:687,_RNCNvMNtCshCRlEur9CrX_11interpreter11interpreterNtB4_11Interpreter8evaluates7_0B6_
FN:584,_RNCNvMNtCshCRlEur9CrX_11interpreter11interpreterNtB4_11Interpreter8evaluates_0B6_
FN:1156,_RNCNvMs_NtCshCRlEur9CrX_11interpreter11interpreterNtB6_11Interpreter13detect_cycless2_0B8_
FN:1157,_RNCNvMs_NtCshCRlEur9CrX_11interpreter11interpreterNtB6_11Interpreter13detect_cycless3_0B8_
FN:1160,_RNCNvMs_NtCshCRlEur9CrX_11interpreter11interpreterNtB6_11Interpreter13detect_cycless4_0B8_
FN:1171,_RNCNvMs_NtCshCRlEur9CrX_11interpreter11interpreterNtB6_11Interpreter13detect_cycless5_0B8_
FN:1172,_RNCNvMs_NtCshCRlEur9CrX_11interpreter11interpreterNtB6_11Interpreter13detect_cycless6_0B8_
FN:1173,_RNCNvMs_NtCshCRlEur9CrX_11interpreter11interpreterNtB6_11Interpreter13detect_cycless7_0B8_
FN:1184,_RNCNvMs_NtCshCRlEur9CrX_11interpreter11interpreterNtB6_11Interpreter18detect_cycles_json0B8_
FN:1198,_RNCNvMs_NtCshCRlEur9CrX_11interpreter11interpreterNtB6_11Interpreter18detect_cycles_jsons0_0B8_
FN:1199,_RNCNvMs_NtCshCRlEur9CrX_11interpreter11interpreterNtB6_11Interpreter18detect_cycles_jsons1_0B8_
FN:1189,_RNCNvMs_NtCshCRlEur9CrX_11interpreter11interpreterNtB6_11Interpreter18detect_cycles_jsons2_0B8_
FN:1191,_RNCNvMs_NtCshCRlEur9CrX_11interpreter11interpreterNtB6_11Interpreter18detect_cycles_jsons3_0B8_
FN:1197,_RNCNvMs_NtCshCRlEur9CrX_11interpreter11interpreterNtB6_11Interpreter18detect_cycles_jsons_0B8_
FN:817,_RNvMNtCshCRlEur9CrX_11interpreter11interpreterNtB2_11Interpreter11handle_call
FN:869,_RNvMNtCshCRlEur9CrX_11interpreter11interpreterNtB2_11Interpreter12call_builtin
FN:239,_RNvMNtCshCRlEur9CrX_11interpreter11interpreterNtB2_11Interpreter12cycle_report
FN:53,_RNvMNtCshCRlEur9CrX_11interpreter11interpreterNtB2_11Interpreter12with_prelude
FN:1010,_RNvMNtCshCRlEur9CrX_11interpreter11interpreterNtB2_11Interpreter13call_fallback
FN:830,_RNvMNtCshCRlEur9CrX_11interpreter11interpreterNtB2_11Interpreter13call_function
FN:474,_RNvMNtCshCRlEur9CrX_11interpreter11interpreterNtB2_11Interpreter13execute_block
FN:84,_RNvMNtCshCRlEur9CrX_11interpreter11interpreterNtB2_11Interpreter13heap_register
FN:118,_RNvMNtCshCRlEur9CrX_11interpreter11interpreterNtB2_11Interpreter14finalize_arena
FN:96,_RNvMNtCshCRlEur9CrX_11interpreter11interpreterNtB2_11Interpreter15is_object_aliveB4_
FN:407,_RNvMNtCshCRlEur9CrX_11interpreter11interpreterNtB2_11Interpreter15pattern_matches
FN:236,_RNvMNtCshCRlEur9CrX_11interpreter11interpreterNtB2_11Interpreter16debug_get_global
FN:93,_RNvMNtCshCRlEur9CrX_11interpreter11interpreterNtB2_11Interpreter16heap_get_unowned
FN:78,_RNvMNtCshCRlEur9CrX_11interpreter11interpreterNtB2_11Interpreter16take_diagnostics
FN:228,_RNvMNtCshCRlEur9CrX_11interpreter11interpreterNtB2_11Interpreter17debug_heap_remove
FN:143,_RNvMNtCshCRlEur9CrX_11interpreter11interpreterNtB2_11Interpreter17dec_value_if_heap
FN:92,_RNvMNtCshCRlEur9CrX_11interpreter11interpreterNtB2_11Interpreter17heap_upgrade_weak
FN:106,_RNvMNtCshCRlEur9CrX_11interpreter11interpreterNtB2_11Interpreter17heapify_compositeB4_
FN:132,_RNvMNtCshCRlEur9CrX_11interpreter11interpreterNtB2_11Interpreter17resolve_compositeB4_
FN:90,_RNvMNtCshCRlEur9CrX_11interpreter11interpreterNtB2_11Interpreter18debug_create_arena
FN:235,_RNvMNtCshCRlEur9CrX_11interpreter11interpreterNtB2_11Interpreter19debug_define_global
FN:232,_RNvMNtCshCRlEur9CrX_11interpreter11interpreterNtB2_11Interpreter19debug_heap_inc_weak
FN:226,_RNvMNtCshCRlEur9CrX_11interpreter11interpreterNtB2_11Interpreter19debug_heap_register
FN:162,_RNvMNtCshCRlEur9CrX_11interpreter11interpreterNtB2_11Interpreter19dec_children_strongB4_
FN:146,_RNvMNtCshCRlEur9CrX_11interpreter11interpreterNtB2_11Interpreter19inc_children_strongB4_
FN:99,_RNvMNtCshCRlEur9CrX_11interpreter11interpreterNtB2_11Interpreter20note_composite_childB4_
FN:231,_RNvMNtCshCRlEur9CrX_11interpreter11interpreterNtB2_11Interpreter21debug_heap_dec_strong
FN:1004,_RNvMNtCshCRlEur9CrX_11interpreter11interpreterNtB2_11Interpreter22construct_enum_variant
FN:230,_RNvMNtCshCRlEur9CrX_11interpreter11interpreterNtB2_11Interpreter22debug_heap_get_unowned
FN:87,_RNvMNtCshCRlEur9CrX_11interpreter11interpreterNtB2_11Interpreter22heap_register_in_arena
FN:229,_RNvMNtCshCRlEur9CrX_11interpreter11interpreterNtB2_11Interpreter23debug_heap_upgrade_weak
FN:138,_RNvMNtCshCRlEur9CrX_11interpreter11interpreterNtB2_11Interpreter23drop_scope_heap_objects
FN:67,_RNvMNtCshCRlEur9CrX_11interpreter11interpreterNtB2_11Interpreter24register_struct_for_test
FN:177,_RNvMNtCshCRlEur9CrX_11interpreter11interpreterNtB2_11Interpreter27dec_object_strong_recursive
FN:38,_RNvMNtCshCRlEur9CrX_11interpreter11interpreterNtB2_11Interpreter3new
FN:265,_RNvMNtCshCRlEur9CrX_11interpreter11interpreterNtB2_11Interpreter7execute
FN:494,_RNvMNtCshCRlEur9CrX_11interpreter11interpreterNtB2_11Interpreter8evaluate
FN:1031,_RNvMNtCshCRlEur9CrX_11interpreter11interpreterNtB2_11Interpreter8is_equal
FN:71,_RNvMNtCshCRlEur9CrX_11interpreter11interpreterNtB2_11Interpreter9interpret
FN:1019,_RNvMNtCshCRlEur9CrX_11interpreter11interpreterNtB2_11Interpreter9is_truthy
FN:1103,_RNvMs_NtCshCRlEur9CrX_11interpreter11interpreterNtB4_11Interpreter13detect_cycles
FN:1179,_RNvMs_NtCshCRlEur9CrX_11interpreter11interpreterNtB4_11Interpreter18detect_cycles_json
FN:1207,_RNvMs_NtCshCRlEur9CrX_11interpreter11interpreterNtB4_11Interpreter25detect_cycles_json_pretty
FN:243,_RNvNvMNtCshCRlEur9CrX_11interpreter11interpreterNtB4_11Interpreter12cycle_report4scan
FN:1144,_RNvNvMs_NtCshCRlEur9CrX_11interpreter11interpreterNtB6_11Interpreter13detect_cycles13strongconnect
FN:1152,_RNvNvMs_NtCshCRlEur9CrX_11interpreter11interpreterNtB6_11Interpreter13detect_cycles3dfs
FN:1108,_RNvNvMs_NtCshCRlEur9CrX_11interpreter11interpreterNtB6_11Interpreter13detect_cycles8scan_ids
FN:1234,_RNvXs0_NtCshCRlEur9CrX_11interpreter11interpreterNtB5_11InterpreterNtNtCs66KPHxksi63_4core7default7Default7default
FNDA:42,_RNvMNtCsgnfSBNb3gVx_11interpreter11interpreterNtB2_11Interpreter11handle_call
FNDA:31,_RNvMNtCsgnfSBNb3gVx_11interpreter11interpreterNtB2_11Interpreter12call_builtin
FNDA:6,_RNvMNtCsgnfSBNb3gVx_11interpreter11interpreterNtB2_11Interpreter12cycle_report
FNDA:33,_RNvMNtCsgnfSBNb3gVx_11interpreter11interpreterNtB2_11Interpreter12with_prelude
FNDA:3,_RNvMNtCsgnfSBNb3gVx_11interpreter11interpreterNtB2_11Interpreter13call_fallback
FNDA:8,_RNvMNtCsgnfSBNb3gVx_11interpreter11interpreterNtB2_11Interpreter13call_function
FNDA:11,_RNvMNtCsgnfSBNb3gVx_11interpreter11interpreterNtB2_11Interpreter13execute_block
FNDA:34,_RNvMNtCsgnfSBNb3gVx_11interpreter11interpreterNtB2_11Interpreter13heap_register
FNDA:1,_RNvMNtCsgnfSBNb3gVx_11interpreter11interpreterNtB2_11Interpreter14finalize_arena
FNDA:8,_RNvMNtCsgnfSBNb3gVx_11interpreter11interpreterNtB2_11Interpreter15is_object_aliveB4_
FNDA:6,_RNvMNtCsgnfSBNb3gVx_11interpreter11interpreterNtB2_11Interpreter15pattern_matches
FNDA:3,_RNvMNtCsgnfSBNb3gVx_11interpreter11interpreterNtB2_11Interpreter16debug_get_global
FNDA:1,_RNvMNtCsgnfSBNb3gVx_11interpreter11interpreterNtB2_11Interpreter16heap_get_unowned
FNDA:25,_RNvMNtCsgnfSBNb3gVx_11interpreter11interpreterNtB2_11Interpreter16take_diagnostics
FNDA:2,_RNvMNtCsgnfSBNb3gVx_11interpreter11interpreterNtB2_11Interpreter17debug_heap_remove
FNDA:1,_RNvMNtCsgnfSBNb3gVx_11interpreter11interpreterNtB2_11Interpreter17dec_value_if_heap
FNDA:9,_RNvMNtCsgnfSBNb3gVx_11interpreter11interpreterNtB2_11Interpreter17heap_upgrade_weak
FNDA:23,_RNvMNtCsgnfSBNb3gVx_11interpreter11interpreterNtB2_11Interpreter17heapify_compositeB4_
FNDA:10,_RNvMNtCsgnfSBNb3gVx_11interpreter11interpreterNtB2_11Interpreter17resolve_compositeB4_
FNDA:0,_RNvMNtCsgnfSBNb3gVx_11interpreter11interpreterNtB2_11Interpreter18debug_create_arena
FNDA:3,_RNvMNtCsgnfSBNb3gVx_11interpreter11interpreterNtB2_11Interpreter19debug_define_global
FNDA:0,_RNvMNtCsgnfSBNb3gVx_11interpreter11interpreterNtB2_11Interpreter19debug_heap_inc_weak
FNDA:7,_RNvMNtCsgnfSBNb3gVx_11interpreter11interpreterNtB2_11Interpreter19debug_heap_register
FNDA:15,_RNvMNtCsgnfSBNb3gVx_11interpreter11interpreterNtB2_11Interpreter19dec_children_strongB4_
FNDA:23,_RNvMNtCsgnfSBNb3gVx_11interpreter11interpreterNtB2_11Interpreter19inc_children_strongB4_
FNDA:28,_RNvMNtCsgnfSBNb3gVx_11interpreter11interpreterNtB2_11Interpreter20note_composite_childB4_
FNDA:1,_RNvMNtCsgnfSBNb3gVx_11interpreter11interpreterNtB2_11Interpreter21debug_heap_dec_strong
FNDA:0,_RNvMNtCsgnfSBNb3gVx_11interpreter11interpreterNtB2_11Interpreter22construct_enum_variant
FNDA:1,_RNvMNtCsgnfSBNb3gVx_11interpreter11interpreterNtB2_11Interpreter22debug_heap_get_unowned
FNDA:2,_RNvMNtCsgnfSBNb3gVx_11interpreter11interpreterNtB2_11Interpreter22heap_register_in_arena
FNDA:5,_RNvMNtCsgnfSBNb3gVx_11interpreter11interpreterNtB2_11Interpreter23debug_heap_upgrade_weak
FNDA:23,_RNvMNtCsgnfSBNb3gVx_11interpreter11interpreterNtB2_11Interpreter23drop_scope_heap_objects
FNDA:3,_RNvMNtCsgnfSBNb3gVx_11interpreter11interpreterNtB2_11Interpreter24register_struct_for_test
FNDA:16,_RNvMNtCsgnfSBNb3gVx_11interpreter11interpreterNtB2_11Interpreter27dec_object_strong_recursive
FNDA:36,_RNvMNtCsgnfSBNb3gVx_11interpreter11interpreterNtB2_11Interpreter3new
FNDA:112,_RNvMNtCsgnfSBNb3gVx_11interpreter11interpreterNtB2_11Interpreter7execute
FNDA:226,_RNvMNtCsgnfSBNb3gVx_11interpreter11interpreterNtB2_11Interpreter8evaluate
FNDA:0,_RNvMNtCsgnfSBNb3gVx_11interpreter11interpreterNtB2_11Interpreter8is_equal
FNDA:31,_RNvMNtCsgnfSBNb3gVx_11interpreter11interpreterNtB2_11Interpreter9interpret
FNDA:0,_RNvMNtCsgnfSBNb3gVx_11interpreter11interpreterNtB2_11Interpreter9is_truthy
FNDA:1,_RNvMs_NtCsgnfSBNb3gVx_11interpreter11interpreterNtB4_11Interpreter13detect_cycles
FNDA:0,_RNvMs_NtCsgnfSBNb3gVx_11interpreter11interpreterNtB4_11Interpreter18detect_cycles_json
FNDA:0,_RNvMs_NtCsgnfSBNb3gVx_11interpreter11interpreterNtB4_11Interpreter25detect_cycles_json_pretty
FNDA:62,_RNvNvMNtCsgnfSBNb3gVx_11interpreter11interpreterNtB4_11Interpreter12cycle_report4scan
FNDA:2,_RNvNvMs_NtCsgnfSBNb3gVx_11interpreter11interpreterNtB6_11Interpreter13detect_cycles13strongconnect
FNDA:2,_RNvNvMs_NtCsgnfSBNb3gVx_11interpreter11interpreterNtB6_11Interpreter13detect_cycles3dfs
FNDA:12,_RNvNvMs_NtCsgnfSBNb3gVx_11interpreter11interpreterNtB6_11Interpreter13detect_cycles8scan_ids
FNDA:0,_RNvXs0_NtCsgnfSBNb3gVx_11interpreter11interpreterNtB5_11InterpreterNtNtCs66KPHxksi63_4core7default7Default7default
FNDA:0,_RINvMNtCsgnfSBNb3gVx_11interpreter11interpreterNtB3_11Interpreter13binary_cmp_opNCNvB2_8evaluates2_0EB5_
FNDA:0,_RINvMNtCsgnfSBNb3gVx_11interpreter11interpreterNtB3_11Interpreter13binary_cmp_opNCNvB2_8evaluates3_0EB5_
FNDA:0,_RINvMNtCsgnfSBNb3gVx_11interpreter11interpreterNtB3_11Interpreter13binary_cmp_opNCNvB2_8evaluates4_0EB5_
FNDA:0,_RINvMNtCsgnfSBNb3gVx_11interpreter11interpreterNtB3_11Interpreter13binary_cmp_opNCNvB2_8evaluates5_0EB5_
FNDA:1,_RINvMNtCsgnfSBNb3gVx_11interpreter11interpreterNtB3_11Interpreter13binary_num_opNCNvB2_8evaluates0_0EB5_
FNDA:0,_RINvMNtCsgnfSBNb3gVx_11interpreter11interpreterNtB3_11Interpreter13binary_num_opNCNvB2_8evaluates1_0EB5_
FNDA:0,_RINvMNtCsgnfSBNb3gVx_11interpreter11interpreterNtB3_11Interpreter13binary_num_opNCNvB2_8evaluates_0EB5_
FNDA:0,_RNCNCNCNvMs_NtCsgnfSBNb3gVx_11interpreter11interpreterNtBa_11Interpreter13detect_cycless4_000Bc_
FNDA:0,_RNCNCNvMs_NtCsgnfSBNb3gVx_11interpreter11interpreterNtB8_11Interpreter13detect_cycless4_00Ba_
FNDA:0,_RNCNCNvMs_NtCsgnfSBNb3gVx_11interpreter11interpreterNtB8_11Interpreter13detect_cycless5_00Ba_
FNDA:2,_RNCNvMNtCsgnfSBNb3gVx_11interpreter11interpreterNtB4_11Interpreter14finalize_arena0B6_
FNDA:1,_RNCNvMNtCsgnfSBNb3gVx_11interpreter11interpreterNtB4_11Interpreter16heap_get_unowned0B6_
FNDA:9,_RNCNvMNtCsgnfSBNb3gVx_11interpreter11interpreterNtB4_11Interpreter17heap_upgrade_weak0B6_
FNDA:2,_RNCNvMNtCsgnfSBNb3gVx_11interpreter11interpreterNtB4_11Interpreter27dec_object_strong_recursive0B6_
FNDA:0,_RNCNvMNtCsgnfSBNb3gVx_11interpreter11interpreterNtB4_11Interpreter7execute0B6_
FNDA:11,_RNCNvMNtCsgnfSBNb3gVx_11interpreter11interpreterNtB4_11Interpreter8evaluate0B6_
FNDA:1,_RNCNvMNtCsgnfSBNb3gVx_11interpreter11interpreterNtB4_11Interpreter8evaluates0_0B6_
FNDA:0,_RNCNvMNtCsgnfSBNb3gVx_11interpreter11interpreterNtB4_11Interpreter8evaluates1_0B6_
FNDA:0,_RNCNvMNtCsgnfSBNb3gVx_11interpreter11interpreterNtB4_11Interpreter8evaluates2_0B6_
FNDA:0,_RNCNvMNtCsgnfSBNb3gVx_11interpreter11interpreterNtB4_11Interpreter8evaluates3_0B6_
FNDA:0,_RNCNvMNtCsgnfSBNb3gVx_11interpreter11interpreterNtB4_11Interpreter8evaluates4_0B6_
FNDA:0,_RNCNvMNtCsgnfSBNb3gVx_11interpreter11interpreterNtB4_11Interpreter8evaluates5_0B6_
FNDA:9,_RNCNvMNtCsgnfSBNb3gVx_11interpreter11interpreterNtB4_11Interpreter8evaluates6_0B6_
FNDA:10,_RNCNvMNtCsgnfSBNb3gVx_11interpreter11interpreterNtB4_11Interpreter8evaluates7_0B6_
FNDA:0,_RNCNvMNtCsgnfSBNb3gVx_11interpreter11interpreterNtB4_11Interpreter8evaluates_0B6_
FNDA:0,_RNCNvMs_NtCsgnfSBNb3gVx_11interpreter11interpreterNtB6_11Interpreter13detect_cycless2_0B8_
FNDA:0,_RNCNvMs_NtCsgnfSBNb3gVx_11interpreter11interpreterNtB6_11Interpreter13detect_cycless3_0B8_
FNDA:0,_RNCNvMs_NtCsgnfSBNb3gVx_11interpreter11interpreterNtB6_11Interpreter13detect_cycless4_0B8_
FNDA:0,_RNCNvMs_NtCsgnfSBNb3gVx_11interpreter11interpreterNtB6_11Interpreter13detect_cycless5_0B8_
FNDA:0,_RNCNvMs_NtCsgnfSBNb3gVx_11interpreter11interpreterNtB6_11Interpreter13detect_cycless6_0B8_
FNDA:0,_RNCNvMs_NtCsgnfSBNb3gVx_11interpreter11interpreterNtB6_11Interpreter13detect_cycless7_0B8_
FNDA:0,_RNCNvMs_NtCsgnfSBNb3gVx_11interpreter11interpreterNtB6_11Interpreter18detect_cycles_json0B8_
FNDA:0,_RNCNvMs_NtCsgnfSBNb3gVx_11interpreter11interpreterNtB6_11Interpreter18detect_cycles_jsons0_0B8_
FNDA:0,_RNCNvMs_NtCsgnfSBNb3gVx_11interpreter11interpreterNtB6_11Interpreter18detect_cycles_jsons1_0B8_
FNDA:0,_RNCNvMs_NtCsgnfSBNb3gVx_11interpreter11interpreterNtB6_11Interpreter18detect_cycles_jsons2_0B8_
FNDA:0,_RNCNvMs_NtCsgnfSBNb3gVx_11interpreter11interpreterNtB6_11Interpreter18detect_cycles_jsons3_0B8_
FNDA:0,_RNCNvMs_NtCsgnfSBNb3gVx_11interpreter11interpreterNtB6_11Interpreter18detect_cycles_jsons_0B8_
FNDA:0,_RINvMNtCshCRlEur9CrX_11interpreter11interpreterNtB3_11Interpreter13binary_cmp_oppEB5_
FNDA:0,_RINvMNtCshCRlEur9CrX_11interpreter11interpreterNtB3_11Interpreter13binary_num_oppEB5_
FNDA:0,_RNCNCNCNvMs_NtCshCRlEur9CrX_11interpreter11interpreterNtBa_11Interpreter13detect_cycless4_000Bc_
FNDA:0,_RNCNCNvMs_NtCshCRlEur9CrX_11interpreter11interpreterNtB8_11Interpreter13detect_cycless4_00Ba_
FNDA:0,_RNCNCNvMs_NtCshCRlEur9CrX_11interpreter11interpreterNtB8_11Interpreter13detect_cycless5_00Ba_
FNDA:0,_RNCNvMNtCshCRlEur9CrX_11interpreter11interpreterNtB4_11Interpreter14finalize_arena0B6_
FNDA:0,_RNCNvMNtCshCRlEur9CrX_11interpreter11interpreterNtB4_11Interpreter16heap_get_unowned0B6_
FNDA:0,_RNCNvMNtCshCRlEur9CrX_11interpreter11interpreterNtB4_11Interpreter17heap_upgrade_weak0B6_
FNDA:0,_RNCNvMNtCshCRlEur9CrX_11interpreter11interpreterNtB4_11Interpreter27dec_object_strong_recursive0B6_
FNDA:0,_RNCNvMNtCshCRlEur9CrX_11interpreter11interpreterNtB4_11Interpreter7execute0B6_
FNDA:0,_RNCNvMNtCshCRlEur9CrX_11interpreter11interpreterNtB4_11Interpreter8evaluate0B6_
FNDA:0,_RNCNvMNtCshCRlEur9CrX_11interpreter11interpreterNtB4_11Interpreter8evaluates0_0B6_
FNDA:0,_RNCNvMNtCshCRlEur9CrX_11interpreter11interpreterNtB4_11Interpreter8evaluates1_0B6_
FNDA:0,_RNCNvMNtCshCRlEur9CrX_11interpreter11interpreterNtB4_11Interpreter8evaluates2_0B6_
FNDA:0,_RNCNvMNtCshCRlEur9CrX_11interpreter11interpreterNtB4_11Interpreter8evaluates3_0B6_
FNDA:0,_RNCNvMNtCshCRlEur9CrX_11interpreter11interpreterNtB4_11Interpreter8evaluates4_0B6_
FNDA:0,_RNCNvMNtCshCRlEur9CrX_11interpreter11interpreterNtB4_11Interpreter8evaluates5_0B6_
FNDA:0,_RNCNvMNtCshCRlEur9CrX_11interpreter11interpreterNtB4_11Interpreter8evaluates6_0B6_
FNDA:0,_RNCNvMNtCshCRlEur9CrX_11interpreter11interpreterNtB4_11Interpreter8evaluates7_0B6_
FNDA:0,_RNCNvMNtCshCRlEur9CrX_11interpreter11interpreterNtB4_11Interpreter8evaluates_0B6_
FNDA:0,_RNCNvMs_NtCshCRlEur9CrX_11interpreter11interpreterNtB6_11Interpreter13detect_cycless2_0B8_
FNDA:0,_RNCNvMs_NtCshCRlEur9CrX_11interpreter11interpreterNtB6_11Interpreter13detect_cycless3_0B8_
FNDA:0,_RNCNvMs_NtCshCRlEur9CrX_11interpreter11interpreterNtB6_11Interpreter13detect_cycless4_0B8_
FNDA:0,_RNCNvMs_NtCshCRlEur9CrX_11interpreter11interpreterNtB6_11Interpreter13detect_cycless5_0B8_
FNDA:0,_RNCNvMs_NtCshCRlEur9CrX_11interpreter11interpreterNtB6_11Interpreter13detect_cycless6_0B8_
FNDA:0,_RNCNvMs_NtCshCRlEur9CrX_11interpreter11interpreterNtB6_11Interpreter13detect_cycless7_0B8_
FNDA:0,_RNCNvMs_NtCshCRlEur9CrX_11interpreter11interpreterNtB6_11Interpreter18detect_cycles_json0B8_
FNDA:0,_RNCNvMs_NtCshCRlEur9CrX_11interpreter11interpreterNtB6_11Interpreter18detect_cycles_jsons0_0B8_
FNDA:0,_RNCNvMs_NtCshCRlEur9CrX_11interpreter11interpreterNtB6_11Interpreter18detect_cycles_jsons1_0B8_
FNDA:0,_RNCNvMs_NtCshCRlEur9CrX_11interpreter11interpreterNtB6_11Interpreter18detect_cycles_jsons2_0B8_
FNDA:0,_RNCNvMs_NtCshCRlEur9CrX_11interpreter11interpreterNtB6_11Interpreter18detect_cycles_jsons3_0B8_
FNDA:0,_RNCNvMs_NtCshCRlEur9CrX_11interpreter11interpreterNtB6_11Interpreter18detect_cycles_jsons_0B8_
FNDA:0,_RNvMNtCshCRlEur9CrX_11interpreter11interpreterNtB2_11Interpreter11handle_call
FNDA:0,_RNvMNtCshCRlEur9CrX_11interpreter11interpreterNtB2_11Interpreter12call_builtin
FNDA:0,_RNvMNtCshCRlEur9CrX_11interpreter11interpreterNtB2_11Interpreter12cycle_report
FNDA:0,_RNvMNtCshCRlEur9CrX_11interpreter11interpreterNtB2_11Interpreter12with_prelude
FNDA:0,_RNvMNtCshCRlEur9CrX_11interpreter11interpreterNtB2_11Interpreter13call_fallback
FNDA:0,_RNvMNtCshCRlEur9CrX_11interpreter11interpreterNtB2_11Interpreter13call_function
FNDA:0,_RNvMNtCshCRlEur9CrX_11interpreter11interpreterNtB2_11Interpreter13execute_block
FNDA:0,_RNvMNtCshCRlEur9CrX_11interpreter11interpreterNtB2_11Interpreter13heap_register
FNDA:0,_RNvMNtCshCRlEur9CrX_11interpreter11interpreterNtB2_11Interpreter14finalize_arena
FNDA:0,_RNvMNtCshCRlEur9CrX_11interpreter11interpreterNtB2_11Interpreter15is_object_aliveB4_
FNDA:0,_RNvMNtCshCRlEur9CrX_11interpreter11interpreterNtB2_11Interpreter15pattern_matches
FNDA:0,_RNvMNtCshCRlEur9CrX_11interpreter11interpreterNtB2_11Interpreter16debug_get_global
FNDA:0,_RNvMNtCshCRlEur9CrX_11interpreter11interpreterNtB2_11Interpreter16heap_get_unowned
FNDA:0,_RNvMNtCshCRlEur9CrX_11interpreter11interpreterNtB2_11Interpreter16take_diagnostics
FNDA:0,_RNvMNtCshCRlEur9CrX_11interpreter11interpreterNtB2_11Interpreter17debug_heap_remove
FNDA:0,_RNvMNtCshCRlEur9CrX_11interpreter11interpreterNtB2_11Interpreter17dec_value_if_heap
FNDA:0,_RNvMNtCshCRlEur9CrX_11interpreter11interpreterNtB2_11Interpreter17heap_upgrade_weak
FNDA:0,_RNvMNtCshCRlEur9CrX_11interpreter11interpreterNtB2_11Interpreter17heapify_compositeB4_
FNDA:0,_RNvMNtCshCRlEur9CrX_11interpreter11interpreterNtB2_11Interpreter17resolve_compositeB4_
FNDA:0,_RNvMNtCshCRlEur9CrX_11interpreter11interpreterNtB2_11Interpreter18debug_create_arena
FNDA:0,_RNvMNtCshCRlEur9CrX_11interpreter11interpreterNtB2_11Interpreter19debug_define_global
FNDA:0,_RNvMNtCshCRlEur9CrX_11interpreter11interpreterNtB2_11Interpreter19debug_heap_inc_weak
FNDA:0,_RNvMNtCshCRlEur9CrX_11interpreter11interpreterNtB2_11Interpreter19debug_heap_register
FNDA:0,_RNvMNtCshCRlEur9CrX_11interpreter11interpreterNtB2_11Interpreter19dec_children_strongB4_
FNDA:0,_RNvMNtCshCRlEur9CrX_11interpreter11interpreterNtB2_11Interpreter19inc_children_strongB4_
FNDA:0,_RNvMNtCshCRlEur9CrX_11interpreter11interpreterNtB2_11Interpreter20note_composite_childB4_
FNDA:0,_RNvMNtCshCRlEur9CrX_11interpreter11interpreterNtB2_11Interpreter21debug_heap_dec_strong
FNDA:0,_RNvMNtCshCRlEur9CrX_11interpreter11interpreterNtB2_11Interpreter22construct_enum_variant
FNDA:0,_RNvMNtCshCRlEur9CrX_11interpreter11interpreterNtB2_11Interpreter22debug_heap_get_unowned
FNDA:0,_RNvMNtCshCRlEur9CrX_11interpreter11interpreterNtB2_11Interpreter22heap_register_in_arena
FNDA:0,_RNvMNtCshCRlEur9CrX_11interpreter11interpreterNtB2_11Interpreter23debug_heap_upgrade_weak
FNDA:0,_RNvMNtCshCRlEur9CrX_11interpreter11interpreterNtB2_11Interpreter23drop_scope_heap_objects
FNDA:0,_RNvMNtCshCRlEur9CrX_11interpreter11interpreterNtB2_11Interpreter24register_struct_for_test
FNDA:0,_RNvMNtCshCRlEur9CrX_11interpreter11interpreterNtB2_11Interpreter27dec_object_strong_recursive
FNDA:0,_RNvMNtCshCRlEur9CrX_11interpreter11interpreterNtB2_11Interpreter3new
FNDA:0,_RNvMNtCshCRlEur9CrX_11interpreter11interpreterNtB2_11Interpreter7execute
FNDA:0,_RNvMNtCshCRlEur9CrX_11interpreter11interpreterNtB2_11Interpreter8evaluate
FNDA:0,_RNvMNtCshCRlEur9CrX_11interpreter11interpreterNtB2_11Interpreter8is_equal
FNDA:0,_RNvMNtCshCRlEur9CrX_11interpreter11interpreterNtB2_11Interpreter9interpret
FNDA:0,_RNvMNtCshCRlEur9CrX_11interpreter11interpreterNtB2_11Interpreter9is_truthy
FNDA:0,_RNvMs_NtCshCRlEur9CrX_11interpreter11interpreterNtB4_11Interpreter13detect_cycles
FNDA:0,_RNvMs_NtCshCRlEur9CrX_11interpreter11interpreterNtB4_11Interpreter18detect_cycles_json
FNDA:0,_RNvMs_NtCshCRlEur9CrX_11interpreter11interpreterNtB4_11Interpreter25detect_cycles_json_pretty
FNDA:0,_RNvNvMNtCshCRlEur9CrX_11interpreter11interpreterNtB4_11Interpreter12cycle_report4scan
FNDA:0,_RNvNvMs_NtCshCRlEur9CrX_11interpreter11interpreterNtB6_11Interpreter13detect_cycles13strongconnect
FNDA:0,_RNvNvMs_NtCshCRlEur9CrX_11interpreter11interpreterNtB6_11Interpreter13detect_cycles3dfs
FNDA:0,_RNvNvMs_NtCshCRlEur9CrX_11interpreter11interpreterNtB6_11Interpreter13detect_cycles8scan_ids
FNDA:0,_RNvXs0_NtCshCRlEur9CrX_11interpreter11interpreterNtB5_11InterpreterNtNtCs66KPHxksi63_4core7default7Default7default
FNF:80
FNH:49
DA:38,36
DA:39,36
DA:41,36
DA:42,36
DA:43,36
DA:44,36
DA:45,36
DA:46,36
DA:47,36
DA:48,36
DA:50,36
DA:51,36
DA:53,33
DA:54,33
DA:57,33
DA:58,33
DA:59,33
DA:60,33
DA:62,33
DA:63,33
DA:64,33
DA:67,3
DA:68,3
DA:69,3
DA:71,31
DA:72,31
DA:73,116
DA:74,85
DA:76,31
DA:77,31
DA:78,25
DA:79,25
DA:80,25
DA:81,25
DA:84,34
DA:85,34
DA:86,34
DA:87,2
DA:88,2
DA:89,2
DA:90,0
DA:92,9
DA:93,1
DA:96,8
DA:99,28
DA:100,28
DA:101,0
DA:102,28
DA:103,28
DA:106,23
DA:107,23
DA:109,23
DA:111,23
DA:112,23
DA:114,0
DA:116,23
DA:118,1
DA:120,2
DA:121,1
DA:123,0
DA:125,0
DA:126,0
DA:127,0
DA:129,1
DA:132,10
DA:133,10
DA:134,9
DA:135,1
DA:136,10
DA:138,23
DA:139,23
DA:140,36
DA:141,23
DA:143,1
DA:146,23
DA:147,23
DA:148,10
DA:149,25
DA:151,5
DA:152,8
DA:154,8
DA:155,17
DA:157,0
DA:159,23
DA:162,15
DA:163,15
DA:164,14
DA:165,26
DA:167,1
DA:168,1
DA:170,0
DA:171,0
DA:173,0
DA:175,15
DA:177,16
DA:178,16
DA:179,16
DA:180,16
DA:181,16
DA:182,16
DA:184,15
DA:186,15
DA:187,15
DA:188,15
DA:189,15
DA:191,2
DA:193,2
DA:195,4
DA:196,4
DA:199,2
DA:201,2
DA:202,2
DA:203,4
DA:204,0
DA:205,0
DA:206,0
DA:208,2
DA:210,2
DA:211,2
DA:213,4
DA:215,2
DA:217,2
DA:218,2
DA:219,2
DA:220,13
DA:221,1
DA:222,0
DA:223,16
DA:226,7
DA:228,2
DA:229,5
DA:230,1
DA:231,1
DA:232,0
DA:235,3
DA:236,3
DA:239,6
DA:241,6
DA:242,6
DA:243,62
DA:244,62
DA:245,4
DA:246,1
DA:247,3
DA:248,0
DA:249,4
DA:250,0
DA:251,51
DA:253,62
DA:254,58
DA:255,6
DA:256,10
DA:257,6
DA:258,6
DA:259,6
DA:260,6
DA:261,10
DA:262,6
DA:263,6
DA:265,112
DA:266,112
DA:267,112
DA:268,23
DA:269,23
DA:270,23
DA:271,23
DA:273,49
DA:274,49
DA:276,49
DA:277,22
DA:278,22
DA:279,2
DA:280,0
DA:281,0
DA:282,2
DA:283,20
DA:284,0
DA:285,27
DA:287,49
DA:288,49
DA:289,49
DA:290,49
DA:291,49
DA:292,49
DA:294,11
DA:295,0
DA:296,0
DA:297,0
DA:298,0
DA:299,0
DA:300,0
DA:302,0
DA:305,3
DA:306,3
DA:307,3
DA:309,11
DA:310,11
DA:311,11
DA:313,3
DA:314,3
DA:315,5
DA:316,3
DA:318,1
DA:319,0
DA:320,0
DA:321,0
DA:322,0
DA:323,0
DA:325,0
DA:326,0
DA:327,0
DA:328,1
DA:329,1
DA:330,1
DA:331,1
DA:332,2
DA:334,1
DA:336,1
DA:337,1
DA:338,1
DA:339,2
DA:341,2
DA:343,9
DA:344,9
DA:345,9
DA:346,5
DA:347,2
DA:348,3
DA:349,3
DA:350,3
DA:351,0
DA:352,0
DA:354,4
DA:355,4
DA:356,4
DA:357,4
DA:359,9
DA:361,2
DA:362,2
DA:363,2
DA:364,0
DA:367,2
DA:368,0
DA:369,0
DA:370,0
DA:371,0
DA:372,0
DA:373,0
DA:374,0
DA:375,0
DA:376,2
DA:377,2
DA:379,1
DA:381,1
DA:383,1
DA:384,1
DA:385,1
DA:387,3
DA:388,2
DA:389,0
DA:391,0
DA:392,0
DA:393,0
DA:394,0
DA:395,2
DA:398,1
DA:399,1
DA:400,1
DA:401,1
DA:402,1
DA:405,112
DA:407,6
DA:408,6
DA:409,6
DA:410,6
DA:411,6
DA:414,6
DA:415,3
DA:416,3
DA:417,6
DA:418,0
DA:419,1
DA:421,1
DA:423,1
DA:424,0
DA:425,0
DA:428,0
DA:431,1
DA:435,3
DA:436,3
DA:437,3
DA:439,3
DA:440,0
DA:441,3
DA:442,3
DA:443,3
DA:444,3
DA:445,1
DA:446,1
DA:447,1
DA:448,1
DA:449,1
DA:450,2
DA:451,2
DA:452,3
DA:453,3
DA:454,2
DA:455,2
DA:456,1
DA:459,1
DA:462,0
DA:463,0
DA:465,0
DA:470,1
DA:472,6
DA:474,11
DA:475,11
DA:476,11
DA:477,11
DA:478,11
DA:479,11
DA:480,11
DA:481,11
DA:482,23
DA:483,14
DA:484,2
DA:485,2
DA:486,2
DA:487,12
DA:489,9
DA:490,9
DA:491,9
DA:492,11
DA:494,226
DA:495,226
DA:496,5
DA:498,11
DA:500,0
DA:502,0
DA:503,0
DA:504,0
DA:505,0
DA:507,0
DA:510,44
DA:511,5
DA:512,78
DA:513,78
DA:514,78
DA:515,4
DA:516,4
DA:517,2
DA:519,2
DA:521,74
DA:522,74
DA:523,74
DA:525,0
DA:526,0
DA:527,0
DA:528,0
DA:529,0
DA:533,0
DA:534,0
DA:535,0
DA:536,0
DA:537,0
DA:538,0
DA:540,0
DA:541,0
DA:542,0
DA:543,0
DA:544,0
DA:547,0
DA:549,0
DA:550,0
DA:551,0
DA:552,0
DA:553,0
DA:557,0
DA:558,0
DA:559,0
DA:560,0
DA:561,0
DA:562,0
DA:564,4
DA:565,4
DA:566,4
DA:567,4
DA:568,2
DA:569,2
DA:570,0
DA:571,0
DA:572,0
DA:574,0
DA:575,0
DA:577,0
DA:578,0
DA:579,0
DA:580,0
DA:581,0
DA:584,0
DA:585,1
DA:587,1
DA:588,0
DA:589,1
DA:590,1
DA:591,1
DA:592,1
DA:593,1
DA:594,1
DA:596,0
DA:599,0
DA:600,0
DA:601,0
DA:602,0
DA:603,0
DA:604,0
DA:606,0
DA:607,0
DA:608,0
DA:609,0
DA:610,0
DA:614,42
DA:615,6
DA:616,6
DA:617,6
DA:619,0
DA:620,0
DA:621,0
DA:622,0
DA:623,0
DA:626,6
DA:627,10
DA:628,4
DA:629,4
DA:630,4
DA:632,10
DA:633,5
DA:634,1
DA:635,1
DA:636,1
DA:637,1
DA:638,1
DA:639,4
DA:641,5
DA:643,11
DA:644,11
DA:645,8
DA:648,3
DA:649,7
DA:650,9
DA:651,5
DA:652,2
DA:653,2
DA:654,2
DA:655,2
DA:657,2
DA:658,3
DA:659,3
DA:660,2
DA:662,1
DA:663,1
DA:665,0
DA:666,0
DA:667,0
DA:668,0
DA:669,0
DA:674,9
DA:675,9
DA:677,0
DA:678,0
DA:679,0
DA:680,0
DA:681,0
DA:684,9
DA:685,9
DA:686,9
DA:687,10
DA:688,9
DA:690,0
DA:691,0
DA:692,0
DA:693,0
DA:694,0
DA:697,9
DA:698,18
DA:699,9
DA:701,9
DA:702,7
DA:703,7
DA:704,1
DA:705,1
DA:706,1
DA:707,1
DA:708,1
DA:709,6
DA:712,2
DA:713,0
DA:714,0
DA:715,0
DA:716,0
DA:717,0
DA:718,2
DA:721,8
DA:723,10
DA:724,10
DA:725,10
DA:726,10
DA:728,10
DA:729,3
DA:730,3
DA:731,2
DA:732,6
DA:733,6
DA:734,5
DA:735,5
DA:736,1
DA:737,1
DA:738,1
DA:739,1
DA:740,1
DA:743,1
DA:745,1
DA:747,0
DA:748,0
DA:749,0
DA:750,0
DA:751,0
DA:754,3
DA:755,3
DA:756,3
DA:758,0
DA:759,0
DA:760,0
DA:761,0
DA:762,0
DA:765,4
DA:766,4
DA:767,4
DA:769,0
DA:770,0
DA:771,0
DA:772,0
DA:773,0
DA:777,0
DA:778,0
DA:779,0
DA:780,0
DA:781,0
DA:785,5
DA:787,5
DA:788,5
DA:790,2
DA:791,2
DA:792,2
DA:794,3
DA:796,3
DA:797,3
DA:799,1
DA:801,1
DA:802,1
DA:804,0
DA:805,10
DA:806,10
DA:807,25
DA:808,15
DA:809,15
DA:810,15
DA:812,10
DA:815,226
DA:817,42
DA:818,42
DA:819,42
DA:820,0
DA:821,8
DA:822,31
DA:823,0
DA:824,0
DA:826,3
DA:828,42
DA:830,8
DA:831,8
DA:832,8
DA:833,0
DA:834,0
DA:835,0
DA:836,0
DA:837,0
DA:838,8
DA:840,8
DA:841,9
DA:842,8
DA:843,8
DA:844,8
DA:846,0
DA:847,0
DA:848,0
DA:849,0
DA:850,0
DA:853,8
DA:855,8
DA:856,1
DA:857,1
DA:858,8
DA:862,8
DA:863,8
DA:865,8
DA:866,8
DA:867,8
DA:869,31
DA:870,31
DA:872,14
DA:873,14
DA:874,0
DA:875,14
DA:878,3
DA:879,3
DA:880,3
DA:881,1
DA:882,2
DA:884,0
DA:885,0
DA:886,0
DA:887,0
DA:888,0
DA:891,3
DA:893,0
DA:894,0
DA:895,0
DA:896,0
DA:897,0
DA:901,0
DA:902,0
DA:903,0
DA:904,0
DA:905,0
DA:906,0
DA:907,0
DA:908,0
DA:909,0
DA:910,0
DA:911,0
DA:912,0
DA:913,0
DA:914,0
DA:915,0
DA:916,0
DA:917,0
DA:919,0
DA:921,0
DA:922,0
DA:923,0
DA:924,0
DA:925,0
DA:929,5
DA:931,5
DA:932,5
DA:933,1
DA:934,1
DA:935,1
DA:937,4
DA:939,4
DA:940,4
DA:941,4
DA:944,5
DA:945,5
DA:946,0
DA:949,4
DA:950,4
DA:951,4
DA:952,4
DA:953,3
DA:954,1
DA:957,0
DA:959,0
DA:962,2
DA:963,2
DA:964,2
DA:965,0
DA:966,2
DA:967,2
DA:968,2
DA:971,2
DA:972,2
DA:973,0
DA:976,1
DA:977,1
DA:978,1
DA:979,1
DA:980,1
DA:981,0
DA:984,0
DA:986,0
DA:989,2
DA:990,2
DA:991,2
DA:992,2
DA:993,2
DA:994,2
DA:995,2
DA:996,0
DA:997,0
DA:998,0
DA:999,2
DA:1002,31
DA:1004,0
DA:1005,0
DA:1006,0
DA:1007,0
DA:1008,0
DA:1010,3
DA:1011,3
DA:1012,0
DA:1013,0
DA:1014,0
DA:1015,0
DA:1016,0
DA:1017,3
DA:1019,0
DA:1020,0
DA:1021,0
DA:1022,0
DA:1023,0
DA:1024,0
DA:1025,0
DA:1026,0
DA:1027,0
DA:1029,0
DA:1031,0
DA:1032,0
DA:1033,0
DA:1035,1
DA:1036,1
DA:1037,1
DA:1039,1
DA:1040,1
DA:1041,1
DA:1043,0
DA:1044,0
DA:1045,0
DA:1051,0
DA:1054,1
DA:1056,0
DA:1057,0
DA:1058,0
DA:1060,0
DA:1061,0
DA:1062,0
DA:1063,0
DA:1064,0
DA:1065,0
DA:1067,0
DA:1103,1
DA:1106,1
DA:1107,1
DA:1108,12
DA:1109,12
DA:1110,0
DA:1111,0
DA:1112,0
DA:1113,4
DA:1114,0
DA:1115,0
DA:1116,10
DA:1118,12
DA:1119,10
DA:1121,1
DA:1122,1
DA:1123,2
DA:1124,2
DA:1125,2
DA:1126,4
DA:1127,0
DA:1128,0
DA:1129,0
DA:1133,1
DA:1134,1
DA:1135,1
DA:1138,1
DA:1139,1
DA:1140,1
DA:1141,2
DA:1142,1
DA:1143,1
DA:1144,2
DA:1145,2
DA:1146,2
DA:1147,2
DA:1148,2
DA:1149,2
DA:1151,1
DA:1152,2
DA:1153,3
DA:1155,1
DA:1156,1
DA:1157,0
DA:1158,0
DA:1160,0
DA:1161,0
DA:1162,0
DA:1163,0
DA:1164,0
DA:1165,0
DA:1166,0
DA:1167,0
DA:1168,0
DA:1170,0
DA:1171,0
DA:1172,0
DA:1173,0
DA:1174,1
DA:1175,1
DA:1176,1
DA:1179,0
DA:1180,0
DA:1181,0
DA:1182,0
DA:1184,0
DA:1185,0
DA:1187,0
DA:1189,0
DA:1190,0
DA:1191,0
DA:1192,0
DA:1194,0
DA:1195,0
DA:1196,0
DA:1197,0
DA:1198,0
DA:1199,0
DA:1200,0
DA:1202,0
DA:1203,0
DA:1204,0
DA:1207,0
DA:1208,0
DA:1210,0
DA:1211,0
DA:1212,0
DA:1213,0
DA:1214,0
DA:1215,0
DA:1216,0
DA:1217,0
DA:1218,0
DA:1219,0
DA:1220,0
DA:1221,0
DA:1222,0
DA:1223,0
DA:1224,0
DA:1225,0
DA:1227,0
DA:1229,0
DA:1230,0
DA:1234,0
BRF:0
BRH:0
LF:887
LH:538
end_of_record
SF:/workspaces/artcode/crates/interpreter/src/type_infer.rs
FN:51,_RNCNvMs_NtCsgnfSBNb3gVx_11interpreter10type_inferNtB6_9TypeInfer10visit_stmt0B8_
FN:32,_RNCNvMs_NtCsgnfSBNb3gVx_11interpreter10type_inferNtB6_9TypeInfer3run0B8_
FN:13,_RNvMNtCsgnfSBNb3gVx_11interpreter10type_inferNtB2_7TypeEnv2id
FN:17,_RNvMNtCsgnfSBNb3gVx_11interpreter10type_inferNtB2_7TypeEnv3get
FN:12,_RNvMNtCsgnfSBNb3gVx_11interpreter10type_inferNtB2_7TypeEnv3new
FN:14,_RNvMNtCsgnfSBNb3gVx_11interpreter10type_inferNtB2_7TypeEnv3set
FN:16,_RNvMNtCsgnfSBNb3gVx_11interpreter10type_inferNtB2_7TypeEnv7get_var
FN:15,_RNvMNtCsgnfSBNb3gVx_11interpreter10type_inferNtB2_7TypeEnv7set_var
FN:113,_RNvMs_NtCsgnfSBNb3gVx_11interpreter10type_inferNtB4_9TypeInfer10infer_expr
FN:39,_RNvMs_NtCsgnfSBNb3gVx_11interpreter10type_inferNtB4_9TypeInfer10visit_stmt
FN:69,_RNvMs_NtCsgnfSBNb3gVx_11interpreter10type_inferNtB4_9TypeInfer21check_performant_stmt
FN:63,_RNvMs_NtCsgnfSBNb3gVx_11interpreter10type_inferNtB4_9TypeInfer22check_performant_block
FN:27,_RNvMs_NtCsgnfSBNb3gVx_11interpreter10type_inferNtB4_9TypeInfer3new
FN:29,_RNvMs_NtCsgnfSBNb3gVx_11interpreter10type_inferNtB4_9TypeInfer3run
FN:207,_RNvNtCsgnfSBNb3gVx_11interpreter10type_infer10value_type
FN:51,_RNCNvMs_NtCshCRlEur9CrX_11interpreter10type_inferNtB6_9TypeInfer10visit_stmt0B8_
FN:32,_RNCNvMs_NtCshCRlEur9CrX_11interpreter10type_inferNtB6_9TypeInfer3run0B8_
FN:13,_RNvMNtCshCRlEur9CrX_11interpreter10type_inferNtB2_7TypeEnv2id
FN:17,_RNvMNtCshCRlEur9CrX_11interpreter10type_inferNtB2_7TypeEnv3get
FN:12,_RNvMNtCshCRlEur9CrX_11interpreter10type_inferNtB2_7TypeEnv3new
FN:14,_RNvMNtCshCRlEur9CrX_11interpreter10type_inferNtB2_7TypeEnv3set
FN:16,_RNvMNtCshCRlEur9CrX_11interpreter10type_inferNtB2_7TypeEnv7get_var
FN:15,_RNvMNtCshCRlEur9CrX_11interpreter10type_inferNtB2_7TypeEnv7set_var
FN:113,_RNvMs_NtCshCRlEur9CrX_11interpreter10type_inferNtB4_9TypeInfer10infer_expr
FN:39,_RNvMs_NtCshCRlEur9CrX_11interpreter10type_inferNtB4_9TypeInfer10visit_stmt
FN:69,_RNvMs_NtCshCRlEur9CrX_11interpreter10type_inferNtB4_9TypeInfer21check_performant_stmt
FN:63,_RNvMs_NtCshCRlEur9CrX_11interpreter10type_inferNtB4_9TypeInfer22check_performant_block
FN:27,_RNvMs_NtCshCRlEur9CrX_11interpreter10type_inferNtB4_9TypeInfer3new
FN:29,_RNvMs_NtCshCRlEur9CrX_11interpreter10type_inferNtB4_9TypeInfer3run
FN:207,_RNvNtCshCRlEur9CrX_11interpreter10type_infer10value_type
FNDA:2,_RNCNvMs_NtCsgnfSBNb3gVx_11interpreter10type_inferNtB6_9TypeInfer10visit_stmt0B8_
FNDA:1,_RNCNvMs_NtCsgnfSBNb3gVx_11interpreter10type_inferNtB6_9TypeInfer3run0B8_
FNDA:9,_RNvMNtCsgnfSBNb3gVx_11interpreter10type_inferNtB2_7TypeEnv2id
FNDA:0,_RNvMNtCsgnfSBNb3gVx_11interpreter10type_inferNtB2_7TypeEnv3get
FNDA:4,_RNvMNtCsgnfSBNb3gVx_11interpreter10type_inferNtB2_7TypeEnv3new
FNDA:9,_RNvMNtCsgnfSBNb3gVx_11interpreter10type_inferNtB2_7TypeEnv3set
FNDA:2,_RNvMNtCsgnfSBNb3gVx_11interpreter10type_inferNtB2_7TypeEnv7get_var
FNDA:5,_RNvMNtCsgnfSBNb3gVx_11interpreter10type_inferNtB2_7TypeEnv7set_var
FNDA:10,_RNvMs_NtCsgnfSBNb3gVx_11interpreter10type_inferNtB4_9TypeInfer10infer_expr
FNDA:7,_RNvMs_NtCsgnfSBNb3gVx_11interpreter10type_inferNtB4_9TypeInfer10visit_stmt
FNDA:0,_RNvMs_NtCsgnfSBNb3gVx_11interpreter10type_inferNtB4_9TypeInfer21check_performant_stmt
FNDA:0,_RNvMs_NtCsgnfSBNb3gVx_11interpreter10type_inferNtB4_9TypeInfer22check_performant_block
FNDA:4,_RNvMs_NtCsgnfSBNb3gVx_11interpreter10type_inferNtB4_9TypeInfer3new
FNDA:4,_RNvMs_NtCsgnfSBNb3gVx_11interpreter10type_inferNtB4_9TypeInfer3run
FNDA:5,_RNvNtCsgnfSBNb3gVx_11interpreter10type_infer10value_type
FNDA:0,_RNCNvMs_NtCshCRlEur9CrX_11interpreter10type_inferNtB6_9TypeInfer10visit_stmt0B8_
FNDA:0,_RNCNvMs_NtCshCRlEur9CrX_11interpreter10type_inferNtB6_9TypeInfer3run0B8_
FNDA:0,_RNvMNtCshCRlEur9CrX_11interpreter10type_inferNtB2_7TypeEnv2id
FNDA:0,_RNvMNtCshCRlEur9CrX_11interpreter10type_inferNtB2_7TypeEnv3get
FNDA:0,_RNvMNtCshCRlEur9CrX_11interpreter10type_inferNtB2_7TypeEnv3new
FNDA:0,_RNvMNtCshCRlEur9CrX_11interpreter10type_inferNtB2_7TypeEnv3set
FNDA:0,_RNvMNtCshCRlEur9CrX_11interpreter10type_inferNtB2_7TypeEnv7get_var
FNDA:0,_RNvMNtCshCRlEur9CrX_11interpreter10type_inferNtB2_7TypeEnv7set_var
FNDA:0,_RNvMs_NtCshCRlEur9CrX_11interpreter10type_inferNtB4_9TypeInfer10infer_expr
FNDA:0,_RNvMs_NtCshCRlEur9CrX_11interpreter10type_inferNtB4_9TypeInfer10visit_stmt
FNDA:0,_RNvMs_NtCshCRlEur9CrX_11interpreter10type_inferNtB4_9TypeInfer21check_performant_stmt
FNDA:0,_RNvMs_NtCshCRlEur9CrX_11interpreter10type_inferNtB4_9TypeInfer22check_performant_block
FNDA:0,_RNvMs_NtCshCRlEur9CrX_11interpreter10type_inferNtB4_9TypeInfer3new
FNDA:0,_RNvMs_NtCshCRlEur9CrX_11interpreter10type_inferNtB4_9TypeInfer3run
FNDA:0,_RNvNtCshCRlEur9CrX_11interpreter10type_infer10value_type
FNF:15
FNH:12
DA:12,4
DA:13,9
DA:14,9
DA:15,5
DA:16,2
DA:17,0
DA:27,4
DA:29,4
DA:30,11
DA:32,4
DA:33,4
DA:34,1
DA:35,3
DA:36,3
DA:37,4
DA:39,7
DA:40,7
DA:41,0
DA:42,5
DA:43,0
DA:44,0
DA:45,0
DA:46,0
DA:47,0
DA:49,2
DA:50,2
DA:51,4
DA:52,2
DA:54,0
DA:55,0
DA:57,7
DA:63,0
DA:64,0
DA:65,0
DA:66,0
DA:67,0
DA:69,0
DA:71,0
DA:72,0
DA:73,0
DA:74,0
DA:75,0
DA:76,0
DA:77,0
DA:78,0
DA:79,0
DA:80,0
DA:81,0
DA:82,0
DA:83,0
DA:84,0
DA:85,0
DA:86,0
DA:87,0
DA:89,0
DA:90,0
DA:91,0
DA:92,0
DA:93,0
DA:94,0
DA:95,0
DA:96,0
DA:97,0
DA:100,0
DA:101,0
DA:102,0
DA:103,0
DA:105,0
DA:106,0
DA:108,0
DA:109,0
DA:111,0
DA:113,10
DA:115,10
DA:116,5
DA:117,0
DA:118,0
DA:119,1
DA:120,1
DA:121,1
DA:122,1
DA:123,1
DA:124,0
DA:125,0
DA:126,0
DA:128,0
DA:129,0
DA:130,0
DA:131,0
DA:132,0
DA:136,0
DA:137,0
DA:138,0
DA:139,0
DA:140,3
DA:141,3
DA:142,6
DA:143,3
DA:144,2
DA:145,2
DA:146,2
DA:147,2
DA:148,1
DA:149,1
DA:150,1
DA:151,1
DA:152,1
DA:154,1
DA:157,0
DA:158,0
DA:159,0
DA:160,0
DA:161,0
DA:163,0
DA:165,1
DA:166,2
DA:167,1
DA:168,1
DA:169,1
DA:170,1
DA:171,1
DA:172,1
DA:173,0
DA:174,0
DA:175,0
DA:176,0
DA:177,1
DA:178,1
DA:179,0
DA:180,0
DA:181,0
DA:182,0
DA:183,0
DA:184,0
DA:185,0
DA:186,0
DA:187,0
DA:190,0
DA:191,0
DA:192,0
DA:193,0
DA:194,0
DA:195,0
DA:196,0
DA:197,0
DA:199,0
DA:200,1
DA:202,9
DA:203,9
DA:204,10
DA:207,5
DA:208,5
DA:209,5
DA:210,0
DA:211,0
DA:212,0
DA:213,0
DA:214,0
DA:215,0
DA:217,0
DA:218,0
DA:219,0
DA:220,0
DA:221,0
DA:222,0
DA:223,0
DA:225,5
BRF:0
BRH:0
LF:169
LH:64
end_of_record
SF:/workspaces/artcode/crates/interpreter/src/type_registry.rs
FN:50,_RNvMNtCsgnfSBNb3gVx_11interpreter13type_registryNtB2_12TypeRegistry10get_struct
FN:62,_RNvMNtCsgnfSBNb3gVx_11interpreter13type_registryNtB2_12TypeRegistry10has_struct
FN:41,_RNvMNtCsgnfSBNb3gVx_11interpreter13type_registryNtB2_12TypeRegistry13register_enum
FN:32,_RNvMNtCsgnfSBNb3gVx_11interpreter13type_registryNtB2_12TypeRegistry15register_struct
FN:25,_RNvMNtCsgnfSBNb3gVx_11interpreter13type_registryNtB2_12TypeRegistry3new
FN:54,_RNvMNtCsgnfSBNb3gVx_11interpreter13type_registryNtB2_12TypeRegistry8get_enum
FN:58,_RNvMNtCsgnfSBNb3gVx_11interpreter13type_registryNtB2_12TypeRegistry8has_enum
FN:68,_RNvXs_NtCsgnfSBNb3gVx_11interpreter13type_registryNtB4_12TypeRegistryNtNtCs66KPHxksi63_4core7default7Default7default
FN:44,_RNCNvMNtCsgnfSBNb3gVx_11interpreter13type_registryNtB4_12TypeRegistry13register_enum0B6_
FN:35,_RNCNvMNtCsgnfSBNb3gVx_11interpreter13type_registryNtB4_12TypeRegistry15register_struct0B6_
FN:44,_RNCNvMNtCshCRlEur9CrX_11interpreter13type_registryNtB4_12TypeRegistry13register_enum0B6_
FN:35,_RNCNvMNtCshCRlEur9CrX_11interpreter13type_registryNtB4_12TypeRegistry15register_struct0B6_
FN:50,_RNvMNtCshCRlEur9CrX_11interpreter13type_registryNtB2_12TypeRegistry10get_struct
FN:62,_RNvMNtCshCRlEur9CrX_11interpreter13type_registryNtB2_12TypeRegistry10has_struct
FN:41,_RNvMNtCshCRlEur9CrX_11interpreter13type_registryNtB2_12TypeRegistry13register_enum
FN:32,_RNvMNtCshCRlEur9CrX_11interpreter13type_registryNtB2_12TypeRegistry15register_struct
FN:25,_RNvMNtCshCRlEur9CrX_11interpreter13type_registryNtB2_12TypeRegistry3new
FN:54,_RNvMNtCshCRlEur9CrX_11interpreter13type_registryNtB2_12TypeRegistry8get_enum
FN:58,_RNvMNtCshCRlEur9CrX_11interpreter13type_registryNtB2_12TypeRegistry8has_enum
FN:68,_RNvXs_NtCshCRlEur9CrX_11interpreter13type_registryNtB4_12TypeRegistryNtNtCs66KPHxksi63_4core7default7Default7default
FNDA:6,_RNvMNtCsgnfSBNb3gVx_11interpreter13type_registryNtB2_12TypeRegistry10get_struct
FNDA:0,_RNvMNtCsgnfSBNb3gVx_11interpreter13type_registryNtB2_12TypeRegistry10has_struct
FNDA:44,_RNvMNtCsgnfSBNb3gVx_11interpreter13type_registryNtB2_12TypeRegistry13register_enum
FNDA:6,_RNvMNtCsgnfSBNb3gVx_11interpreter13type_registryNtB2_12TypeRegistry15register_struct
FNDA:36,_RNvMNtCsgnfSBNb3gVx_11interpreter13type_registryNtB2_12TypeRegistry3new
FNDA:9,_RNvMNtCsgnfSBNb3gVx_11interpreter13type_registryNtB2_12TypeRegistry8get_enum
FNDA:0,_RNvMNtCsgnfSBNb3gVx_11interpreter13type_registryNtB2_12TypeRegistry8has_enum
FNDA:0,_RNvXs_NtCsgnfSBNb3gVx_11interpreter13type_registryNtB4_12TypeRegistryNtNtCs66KPHxksi63_4core7default7Default7default
FNDA:80,_RNCNvMNtCsgnfSBNb3gVx_11interpreter13type_registryNtB4_12TypeRegistry13register_enum0B6_
FNDA:5,_RNCNvMNtCsgnfSBNb3gVx_11interpreter13type_registryNtB4_12TypeRegistry15register_struct0B6_
FNDA:0,_RNCNvMNtCshCRlEur9CrX_11interpreter13type_registryNtB4_12TypeRegistry13register_enum0B6_
FNDA:0,_RNCNvMNtCshCRlEur9CrX_11interpreter13type_registryNtB4_12TypeRegistry15register_struct0B6_
FNDA:0,_RNvMNtCshCRlEur9CrX_11interpreter13type_registryNtB2_12TypeRegistry10get_struct
FNDA:0,_RNvMNtCshCRlEur9CrX_11interpreter13type_registryNtB2_12TypeRegistry10has_struct
FNDA:0,_RNvMNtCshCRlEur9CrX_11interpreter13type_registryNtB2_12TypeRegistry13register_enum
FNDA:0,_RNvMNtCshCRlEur9CrX_11interpreter13type_registryNtB2_12TypeRegistry15register_struct
FNDA:0,_RNvMNtCshCRlEur9CrX_11interpreter13type_registryNtB2_12TypeRegistry3new
FNDA:0,_RNvMNtCshCRlEur9CrX_11interpreter13type_registryNtB2_12TypeRegistry8get_enum
FNDA:0,_RNvMNtCshCRlEur9CrX_11interpreter13type_registryNtB2_12TypeRegistry8has_enum
FNDA:0,_RNvXs_NtCshCRlEur9CrX_11interpreter13type_registryNtB4_12TypeRegistryNtNtCs66KPHxksi63_4core7default7Default7default
FNF:10
FNH:7
DA:25,36
DA:26,36
DA:27,36
DA:28,36
DA:29,36
DA:30,36
DA:32,6
DA:33,6
DA:34,6
DA:35,6
DA:36,6
DA:38,6
DA:39,6
DA:41,44
DA:42,44
DA:43,44
DA:44,80
DA:45,44
DA:47,44
DA:48,44
DA:50,6
DA:51,6
DA:52,6
DA:54,9
DA:55,9
DA:56,9
DA:58,0
DA:59,0
DA:60,0
DA:62,0
DA:63,0
DA:64,0
DA:68,0
BRF:0
BRH:0
LF:35
LH:28
end_of_record
SF:/workspaces/artcode/crates/interpreter/src/values.rs
FN:10,_RNvXNtCshCRlEur9CrX_11interpreter6valuesNtB2_12RuntimeErrorNtNtCs66KPHxksi63_4core3fmt7Display3fmt
FNDA:0,_RNvXNtCshCRlEur9CrX_11interpreter6valuesNtB2_12RuntimeErrorNtNtCs66KPHxksi63_4core3fmt7Display3fmt
FNF:1
FNH:0
DA:10,0
DA:11,0
DA:12,0
BRF:0
BRH:0
LF:3
LH:0
end_of_record
SF:/workspaces/artcode/crates/lexer/src/keywords.rs
FN:4,_RNvNtCs6RKit4ckMnn_5lexer8keywords13make_keywords
FNDA:0,_RNvNtCs6RKit4ckMnn_5lexer8keywords13make_keywords
FNF:1
FNH:0
DA:4,0
DA:5,0
DA:6,0
DA:7,0
DA:8,0
DA:9,0
DA:10,0
DA:11,0
DA:12,0
DA:13,0
DA:14,0
DA:15,0
DA:16,0
DA:17,0
DA:18,0
DA:19,0
DA:20,0
DA:21,0
DA:22,0
DA:23,0
BRF:0
BRH:0
LF:20
LH:0
end_of_record
SF:/workspaces/artcode/crates/lexer/src/lexer.rs
FN:183,_RNvMNtCsinUcxRFaGSm_5lexer5lexerNtB2_5Lexer10identifier
FN:213,_RNvMNtCsinUcxRFaGSm_5lexer5lexerNtB2_5Lexer10make_token
FN:224,_RNvMNtCsinUcxRFaGSm_5lexer5lexerNtB2_5Lexer10match_char
FN:33,_RNvMNtCsinUcxRFaGSm_5lexer5lexerNtB2_5Lexer10scan_token
FN:24,_RNvMNtCsinUcxRFaGSm_5lexer5lexerNtB2_5Lexer11scan_tokens
FN:251,_RNvMNtCsinUcxRFaGSm_5lexer5lexerNtB2_5Lexer13error_current
FN:116,_RNvMNtCsinUcxRFaGSm_5lexer5lexerNtB2_5Lexer19interpolated_string
FN:14,_RNvMNtCsinUcxRFaGSm_5lexer5lexerNtB2_5Lexer3new
FN:233,_RNvMNtCsinUcxRFaGSm_5lexer5lexerNtB2_5Lexer4peek
FN:152,_RNvMNtCsinUcxRFaGSm_5lexer5lexerNtB2_5Lexer6number
FN:134,_RNvMNtCsinUcxRFaGSm_5lexer5lexerNtB2_5Lexer6string
FN:245,_RNvMNtCsinUcxRFaGSm_5lexer5lexerNtB2_5Lexer7advance
FN:211,_RNvMNtCsinUcxRFaGSm_5lexer5lexerNtB2_5Lexer9add_token
FN:241,_RNvMNtCsinUcxRFaGSm_5lexer5lexerNtB2_5Lexer9is_at_end
FN:237,_RNvMNtCsinUcxRFaGSm_5lexer5lexerNtB2_5Lexer9peek_next
FN:183,_RNvMNtCs6RKit4ckMnn_5lexer5lexerNtB2_5Lexer10identifier
FN:213,_RNvMNtCs6RKit4ckMnn_5lexer5lexerNtB2_5Lexer10make_token
FN:224,_RNvMNtCs6RKit4ckMnn_5lexer5lexerNtB2_5Lexer10match_char
FN:33,_RNvMNtCs6RKit4ckMnn_5lexer5lexerNtB2_5Lexer10scan_token
FN:24,_RNvMNtCs6RKit4ckMnn_5lexer5lexerNtB2_5Lexer11scan_tokens
FN:251,_RNvMNtCs6RKit4ckMnn_5lexer5lexerNtB2_5Lexer13error_current
FN:116,_RNvMNtCs6RKit4ckMnn_5lexer5lexerNtB2_5Lexer19interpolated_string
FN:14,_RNvMNtCs6RKit4ckMnn_5lexer5lexerNtB2_5Lexer3new
FN:233,_RNvMNtCs6RKit4ckMnn_5lexer5lexerNtB2_5Lexer4peek
FN:152,_RNvMNtCs6RKit4ckMnn_5lexer5lexerNtB2_5Lexer6number
FN:134,_RNvMNtCs6RKit4ckMnn_5lexer5lexerNtB2_5Lexer6string
FN:245,_RNvMNtCs6RKit4ckMnn_5lexer5lexerNtB2_5Lexer7advance
FN:211,_RNvMNtCs6RKit4ckMnn_5lexer5lexerNtB2_5Lexer9add_token
FN:241,_RNvMNtCs6RKit4ckMnn_5lexer5lexerNtB2_5Lexer9is_at_end
FN:237,_RNvMNtCs6RKit4ckMnn_5lexer5lexerNtB2_5Lexer9peek_next
FNDA:316,_RNvMNtCsinUcxRFaGSm_5lexer5lexerNtB2_5Lexer10identifier
FNDA:829,_RNvMNtCsinUcxRFaGSm_5lexer5lexerNtB2_5Lexer10make_token
FNDA:47,_RNvMNtCsinUcxRFaGSm_5lexer5lexerNtB2_5Lexer10match_char
FNDA:1425,_RNvMNtCsinUcxRFaGSm_5lexer5lexerNtB2_5Lexer10scan_token
FNDA:48,_RNvMNtCsinUcxRFaGSm_5lexer5lexerNtB2_5Lexer11scan_tokens
FNDA:2,_RNvMNtCsinUcxRFaGSm_5lexer5lexerNtB2_5Lexer13error_current
FNDA:10,_RNvMNtCsinUcxRFaGSm_5lexer5lexerNtB2_5Lexer19interpolated_string
FNDA:48,_RNvMNtCsinUcxRFaGSm_5lexer5lexerNtB2_5Lexer3new
FNDA:1903,_RNvMNtCsinUcxRFaGSm_5lexer5lexerNtB2_5Lexer4peek
FNDA:41,_RNvMNtCsinUcxRFaGSm_5lexer5lexerNtB2_5Lexer6number
FNDA:9,_RNvMNtCsinUcxRFaGSm_5lexer5lexerNtB2_5Lexer6string
FNDA:2400,_RNvMNtCsinUcxRFaGSm_5lexer5lexerNtB2_5Lexer7advance
FNDA:783,_RNvMNtCsinUcxRFaGSm_5lexer5lexerNtB2_5Lexer9add_token
FNDA:3687,_RNvMNtCsinUcxRFaGSm_5lexer5lexerNtB2_5Lexer9is_at_end
FNDA:1,_RNvMNtCsinUcxRFaGSm_5lexer5lexerNtB2_5Lexer9peek_next
FNDA:0,_RNvMNtCs6RKit4ckMnn_5lexer5lexerNtB2_5Lexer10identifier
FNDA:0,_RNvMNtCs6RKit4ckMnn_5lexer5lexerNtB2_5Lexer10make_token
FNDA:0,_RNvMNtCs6RKit4ckMnn_5lexer5lexerNtB2_5Lexer10match_char
FNDA:0,_RNvMNtCs6RKit4ckMnn_5lexer5lexerNtB2_5Lexer10scan_token
FNDA:0,_RNvMNtCs6RKit4ckMnn_5lexer5lexerNtB2_5Lexer11scan_tokens
FNDA:0,_RNvMNtCs6RKit4ckMnn_5lexer5lexerNtB2_5Lexer13error_current
FNDA:0,_RNvMNtCs6RKit4ckMnn_5lexer5lexerNtB2_5Lexer19interpolated_string
FNDA:0,_RNvMNtCs6RKit4ckMnn_5lexer5lexerNtB2_5Lexer3new
FNDA:0,_RNvMNtCs6RKit4ckMnn_5lexer5lexerNtB2_5Lexer4peek
FNDA:0,_RNvMNtCs6RKit4ckMnn_5lexer5lexerNtB2_5Lexer6number
FNDA:0,_RNvMNtCs6RKit4ckMnn_5lexer5lexerNtB2_5Lexer6string
FNDA:0,_RNvMNtCs6RKit4ckMnn_5lexer5lexerNtB2_5Lexer7advance
FNDA:0,_RNvMNtCs6RKit4ckMnn_5lexer5lexerNtB2_5Lexer9add_token
FNDA:0,_RNvMNtCs6RKit4ckMnn_5lexer5lexerNtB2_5Lexer9is_at_end
FNDA:0,_RNvMNtCs6RKit4ckMnn_5lexer5lexerNtB2_5Lexer9peek_next
FNF:15
FNH:15
DA:14,48
DA:15,48
DA:16,48
DA:17,48
DA:18,48
DA:19,48
DA:20,48
DA:21,48
DA:22,48
DA:23,48
DA:24,48
DA:25,1471
DA:26,1425
DA:27,1425
DA:29,46
DA:30,46
DA:31,48
DA:33,1425
DA:34,1425
DA:35,310
DA:36,75
DA:37,75
DA:38,31
DA:39,31
DA:40,4
DA:41,4
DA:42,22
DA:43,32
DA:45,0
DA:46,0
DA:47,0
DA:48,0
DA:49,0
DA:51,5
DA:52,68
DA:53,10
DA:54,1
DA:55,3
DA:56,1
DA:58,1
DA:59,0
DA:61,1
DA:63,1
DA:66,44
DA:67,0
DA:69,44
DA:71,44
DA:74,0
DA:75,0
DA:77,0
DA:79,0
DA:82,0
DA:83,0
DA:85,0
DA:87,0
DA:90,2
DA:91,47
DA:92,46
DA:93,46
DA:94,1
DA:95,1
DA:96,1
DA:98,594
DA:99,45
DA:100,9
DA:102,17
DA:103,10
DA:104,10
DA:105,7
DA:106,7
DA:107,7
DA:109,351
DA:110,310
DA:111,1
DA:113,1423
DA:114,1425
DA:116,10
DA:117,176
DA:118,166
DA:119,0
DA:120,0
DA:121,166
DA:122,166
DA:125,10
DA:127,10
DA:129,10
DA:130,10
DA:131,10
DA:132,10
DA:134,9
DA:135,43
DA:136,34
DA:137,0
DA:138,0
DA:139,34
DA:140,34
DA:143,9
DA:145,8
DA:147,8
DA:148,8
DA:149,8
DA:150,9
DA:152,41
DA:153,48
DA:154,7
DA:155,7
DA:157,41
DA:158,1
DA:159,2
DA:160,1
DA:161,1
DA:162,40
DA:164,41
DA:165,41
DA:166,41
DA:167,41
DA:168,41
DA:173,0
DA:174,0
DA:175,0
DA:176,0
DA:177,0
DA:178,0
DA:181,41
DA:183,316
DA:184,1008
DA:185,692
DA:186,692
DA:187,316
DA:188,316
DA:189,316
DA:190,271
DA:191,271
DA:192,271
DA:193,271
DA:194,271
DA:195,268
DA:196,255
DA:197,255
DA:198,255
DA:199,252
DA:200,249
DA:201,242
DA:202,240
DA:203,240
DA:204,240
DA:205,235
DA:206,233
DA:208,316
DA:209,316
DA:211,783
DA:213,829
DA:214,829
DA:215,829
DA:216,829
DA:218,0
DA:221,829
DA:222,829
DA:224,47
DA:225,47
DA:226,46
DA:228,1
DA:229,1
DA:231,47
DA:233,1903
DA:234,1903
DA:235,1903
DA:237,1
DA:238,1
DA:239,1
DA:241,3687
DA:242,3687
DA:243,3687
DA:245,2400
DA:246,2400
DA:247,2400
DA:248,2400
DA:249,2400
DA:251,2
DA:252,2
DA:253,2
DA:254,2
DA:255,2
DA:256,2
DA:258,2
BRF:0
BRH:0
LF:185
LH:159
end_of_record
SF:/workspaces/artcode/crates/parser/src/expressions.rs
FN:6,_RNvNtCs3zNnppwu0wb_6parser11expressions10expression
FN:158,_RNvNtCs3zNnppwu0wb_6parser11expressions11finish_call
FN:104,_RNvNtCs3zNnppwu0wb_6parser11expressions11parse_infix
FN:20,_RNvNtCs3zNnppwu0wb_6parser11expressions12parse_prefix
FN:10,_RNvNtCs3zNnppwu0wb_6parser11expressions16parse_precedence
FN:112,_RNCNvNtCs3zNnppwu0wb_6parser11expressions11parse_infix0B5_
FN:112,_RNCNvNtCsqpd9PGyH9g_6parser11expressions11parse_infix0B5_
FN:6,_RNvNtCsqpd9PGyH9g_6parser11expressions10expression
FN:158,_RNvNtCsqpd9PGyH9g_6parser11expressions11finish_call
FN:104,_RNvNtCsqpd9PGyH9g_6parser11expressions11parse_infix
FN:20,_RNvNtCsqpd9PGyH9g_6parser11expressions12parse_prefix
FN:10,_RNvNtCsqpd9PGyH9g_6parser11expressions16parse_precedence
FNDA:144,_RNvNtCs3zNnppwu0wb_6parser11expressions10expression
FNDA:34,_RNvNtCs3zNnppwu0wb_6parser11expressions11finish_call
FNDA:65,_RNvNtCs3zNnppwu0wb_6parser11expressions11parse_infix
FNDA:158,_RNvNtCs3zNnppwu0wb_6parser11expressions12parse_prefix
FNDA:158,_RNvNtCs3zNnppwu0wb_6parser11expressions16parse_precedence
FNDA:20,_RNCNvNtCs3zNnppwu0wb_6parser11expressions11parse_infix0B5_
FNDA:0,_RNCNvNtCsqpd9PGyH9g_6parser11expressions11parse_infix0B5_
FNDA:0,_RNvNtCsqpd9PGyH9g_6parser11expressions10expression
FNDA:0,_RNvNtCsqpd9PGyH9g_6parser11expressions11finish_call
FNDA:0,_RNvNtCsqpd9PGyH9g_6parser11expressions11parse_infix
FNDA:0,_RNvNtCsqpd9PGyH9g_6parser11expressions12parse_prefix
FNDA:0,_RNvNtCsqpd9PGyH9g_6parser11expressions16parse_precedence
FNF:6
FNH:6
DA:6,144
DA:7,144
DA:8,144
DA:10,158
DA:11,158
DA:13,223
DA:14,65
DA:15,65
DA:16,65
DA:17,158
DA:18,158
DA:20,158
DA:21,158
DA:22,158
DA:23,40
DA:24,40
DA:25,40
DA:27,0
DA:29,40
DA:31,8
DA:32,10
DA:33,0
DA:34,0
DA:35,0
DA:37,4
DA:38,4
DA:40,11
DA:41,11
DA:42,4
DA:43,7
DA:45,0
DA:46,4
DA:47,4
DA:50,5
DA:51,5
DA:52,5
DA:54,79
DA:57,5
DA:58,5
DA:61,2
DA:62,2
DA:65,0
DA:66,0
DA:69,4
DA:70,4
DA:71,4
DA:72,4
DA:74,4
DA:75,4
DA:76,4
DA:77,0
DA:79,0
DA:80,4
DA:81,4
DA:82,4
DA:83,4
DA:84,4
DA:85,4
DA:87,0
DA:88,0
DA:89,0
DA:90,0
DA:91,0
DA:95,1
DA:96,1
DA:97,1
DA:98,1
DA:99,1
DA:102,158
DA:104,65
DA:105,65
DA:106,65
DA:107,34
DA:109,20
DA:111,20
DA:112,20
DA:113,20
DA:114,10
DA:115,8
DA:116,8
DA:117,8
DA:119,10
DA:120,10
DA:122,1
DA:123,8
DA:124,8
DA:127,2
DA:130,10
DA:132,0
DA:133,0
DA:137,3
DA:141,1
DA:144,0
DA:145,0
DA:148,0
DA:149,0
DA:152,7
DA:153,7
DA:156,65
DA:158,34
DA:159,34
DA:160,34
DA:162,24
DA:163,24
DA:164,24
DA:165,0
DA:167,10
DA:168,34
DA:169,34
DA:170,34
BRF:0
BRH:0
LF:111
LH:90
end_of_record
SF:/workspaces/artcode/crates/parser/src/parser.rs
FN:2,_RNvMNtCs3zNnppwu0wb_6parser6parserNtB2_6Parser25parse_interpolated_string
FN:213,_RNvMs_NtCs3zNnppwu0wb_6parser6parserNtB4_6Parser10expression
FN:303,_RNvMs_NtCs3zNnppwu0wb_6parser6parserNtB4_6Parser10parse_type
FN:129,_RNvMs_NtCs3zNnppwu0wb_6parser6parserNtB4_6Parser11declaration
FN:229,_RNvMs_NtCs3zNnppwu0wb_6parser6parserNtB4_6Parser11finish_call
FN:255,_RNvMs_NtCs3zNnppwu0wb_6parser6parserNtB4_6Parser11match_token
FN:225,_RNvMs_NtCs3zNnppwu0wb_6parser6parserNtB4_6Parser11parse_infix
FN:205,_RNvMs_NtCs3zNnppwu0wb_6parser6parserNtB4_6Parser12if_statement
FN:221,_RNvMs_NtCs3zNnppwu0wb_6parser6parserNtB4_6Parser12parse_prefix
FN:201,_RNvMs_NtCs3zNnppwu0wb_6parser6parserNtB4_6Parser15let_declaration
FN:233,_RNvMs_NtCs3zNnppwu0wb_6parser6parserNtB4_6Parser15peek_precedence
FN:167,_RNvMs_NtCs3zNnppwu0wb_6parser6parserNtB4_6Parser16enum_declaration
FN:217,_RNvMs_NtCs3zNnppwu0wb_6parser6parserNtB4_6Parser16parse_precedence
FN:237,_RNvMs_NtCs3zNnppwu0wb_6parser6parserNtB4_6Parser16token_precedence
FN:148,_RNvMs_NtCs3zNnppwu0wb_6parser6parserNtB4_6Parser18struct_declaration
FN:337,_RNvMs_NtCs3zNnppwu0wb_6parser6parserNtB4_6Parser20function_declaration
FN:117,_RNvMs_NtCs3zNnppwu0wb_6parser6parserNtB4_6Parser3new
FN:295,_RNvMs_NtCs3zNnppwu0wb_6parser6parserNtB4_6Parser4peek
FN:209,_RNvMs_NtCs3zNnppwu0wb_6parser6parserNtB4_6Parser5block
FN:277,_RNvMs_NtCs3zNnppwu0wb_6parser6parserNtB4_6Parser5check
FN:121,_RNvMs_NtCs3zNnppwu0wb_6parser6parserNtB4_6Parser5parse
FN:273,_RNvMs_NtCs3zNnppwu0wb_6parser6parserNtB4_6Parser6report
FN:284,_RNvMs_NtCs3zNnppwu0wb_6parser6parserNtB4_6Parser7advance
FN:264,_RNvMs_NtCs3zNnppwu0wb_6parser6parserNtB4_6Parser7consume
FN:299,_RNvMs_NtCs3zNnppwu0wb_6parser6parserNtB4_6Parser8previous
FN:291,_RNvMs_NtCs3zNnppwu0wb_6parser6parserNtB4_6Parser9is_at_end
FN:197,_RNvMs_NtCs3zNnppwu0wb_6parser6parserNtB4_6Parser9statement
FN:2,_RNvMNtCsqpd9PGyH9g_6parser6parserNtB2_6Parser25parse_interpolated_string
FN:213,_RNvMs_NtCsqpd9PGyH9g_6parser6parserNtB4_6Parser10expression
FN:303,_RNvMs_NtCsqpd9PGyH9g_6parser6parserNtB4_6Parser10parse_type
FN:129,_RNvMs_NtCsqpd9PGyH9g_6parser6parserNtB4_6Parser11declaration
FN:229,_RNvMs_NtCsqpd9PGyH9g_6parser6parserNtB4_6Parser11finish_call
FN:255,_RNvMs_NtCsqpd9PGyH9g_6parser6parserNtB4_6Parser11match_token
FN:225,_RNvMs_NtCsqpd9PGyH9g_6parser6parserNtB4_6Parser11parse_infix
FN:205,_RNvMs_NtCsqpd9PGyH9g_6parser6parserNtB4_6Parser12if_statement
FN:221,_RNvMs_NtCsqpd9PGyH9g_6parser6parserNtB4_6Parser12parse_prefix
FN:201,_RNvMs_NtCsqpd9PGyH9g_6parser6parserNtB4_6Parser15let_declaration
FN:233,_RNvMs_NtCsqpd9PGyH9g_6parser6parserNtB4_6Parser15peek_precedence
FN:167,_RNvMs_NtCsqpd9PGyH9g_6parser6parserNtB4_6Parser16enum_declaration
FN:217,_RNvMs_NtCsqpd9PGyH9g_6parser6parserNtB4_6Parser16parse_precedence
FN:237,_RNvMs_NtCsqpd9PGyH9g_6parser6parserNtB4_6Parser16token_precedence
FN:148,_RNvMs_NtCsqpd9PGyH9g_6parser6parserNtB4_6Parser18struct_declaration
FN:337,_RNvMs_NtCsqpd9PGyH9g_6parser6parserNtB4_6Parser20function_declaration
FN:117,_RNvMs_NtCsqpd9PGyH9g_6parser6parserNtB4_6Parser3new
FN:295,_RNvMs_NtCsqpd9PGyH9g_6parser6parserNtB4_6Parser4peek
FN:209,_RNvMs_NtCsqpd9PGyH9g_6parser6parserNtB4_6Parser5block
FN:277,_RNvMs_NtCsqpd9PGyH9g_6parser6parserNtB4_6Parser5check
FN:121,_RNvMs_NtCsqpd9PGyH9g_6parser6parserNtB4_6Parser5parse
FN:273,_RNvMs_NtCsqpd9PGyH9g_6parser6parserNtB4_6Parser6report
FN:284,_RNvMs_NtCsqpd9PGyH9g_6parser6parserNtB4_6Parser7advance
FN:264,_RNvMs_NtCsqpd9PGyH9g_6parser6parserNtB4_6Parser7consume
FN:299,_RNvMs_NtCsqpd9PGyH9g_6parser6parserNtB4_6Parser8previous
FN:291,_RNvMs_NtCsqpd9PGyH9g_6parser6parserNtB4_6Parser9is_at_end
FN:197,_RNvMs_NtCsqpd9PGyH9g_6parser6parserNtB4_6Parser9statement
FNDA:10,_RNvMNtCs3zNnppwu0wb_6parser6parserNtB2_6Parser25parse_interpolated_string
FNDA:90,_RNvMs_NtCs3zNnppwu0wb_6parser6parserNtB4_6Parser10expression
FNDA:22,_RNvMs_NtCs3zNnppwu0wb_6parser6parserNtB4_6Parser10parse_type
FNDA:96,_RNvMs_NtCs3zNnppwu0wb_6parser6parserNtB4_6Parser11declaration
FNDA:0,_RNvMs_NtCs3zNnppwu0wb_6parser6parserNtB4_6Parser11finish_call
FNDA:689,_RNvMs_NtCs3zNnppwu0wb_6parser6parserNtB4_6Parser11match_token
FNDA:0,_RNvMs_NtCs3zNnppwu0wb_6parser6parserNtB4_6Parser11parse_infix
FNDA:0,_RNvMs_NtCs3zNnppwu0wb_6parser6parserNtB4_6Parser12if_statement
FNDA:0,_RNvMs_NtCs3zNnppwu0wb_6parser6parserNtB4_6Parser12parse_prefix
FNDA:44,_RNvMs_NtCs3zNnppwu0wb_6parser6parserNtB4_6Parser15let_declaration
FNDA:223,_RNvMs_NtCs3zNnppwu0wb_6parser6parserNtB4_6Parser15peek_precedence
FNDA:13,_RNvMs_NtCs3zNnppwu0wb_6parser6parserNtB4_6Parser16enum_declaration
FNDA:0,_RNvMs_NtCs3zNnppwu0wb_6parser6parserNtB4_6Parser16parse_precedence
FNDA:288,_RNvMs_NtCs3zNnppwu0wb_6parser6parserNtB4_6Parser16token_precedence
FNDA:3,_RNvMs_NtCs3zNnppwu0wb_6parser6parserNtB4_6Parser18struct_declaration
FNDA:7,_RNvMs_NtCs3zNnppwu0wb_6parser6parserNtB4_6Parser20function_declaration
FNDA:46,_RNvMs_NtCs3zNnppwu0wb_6parser6parserNtB4_6Parser3new
FNDA:3772,_RNvMs_NtCs3zNnppwu0wb_6parser6parserNtB4_6Parser4peek
FNDA:7,_RNvMs_NtCs3zNnppwu0wb_6parser6parserNtB4_6Parser5block
FNDA:1306,_RNvMs_NtCs3zNnppwu0wb_6parser6parserNtB4_6Parser5check
FNDA:35,_RNvMs_NtCs3zNnppwu0wb_6parser6parserNtB4_6Parser5parse
FNDA:0,_RNvMs_NtCs3zNnppwu0wb_6parser6parserNtB4_6Parser6report
FNDA:779,_RNvMs_NtCs3zNnppwu0wb_6parser6parserNtB4_6Parser7advance
FNDA:349,_RNvMs_NtCs3zNnppwu0wb_6parser6parserNtB4_6Parser7consume
FNDA:779,_RNvMs_NtCs3zNnppwu0wb_6parser6parserNtB4_6Parser8previous
FNDA:2242,_RNvMs_NtCs3zNnppwu0wb_6parser6parserNtB4_6Parser9is_at_end
FNDA:29,_RNvMs_NtCs3zNnppwu0wb_6parser6parserNtB4_6Parser9statement
FNDA:0,_RNvMNtCsqpd9PGyH9g_6parser6parserNtB2_6Parser25parse_interpolated_string
FNDA:0,_RNvMs_NtCsqpd9PGyH9g_6parser6parserNtB4_6Parser10expression
FNDA:0,_RNvMs_NtCsqpd9PGyH9g_6parser6parserNtB4_6Parser10parse_type
FNDA:0,_RNvMs_NtCsqpd9PGyH9g_6parser6parserNtB4_6Parser11declaration
FNDA:0,_RNvMs_NtCsqpd9PGyH9g_6parser6parserNtB4_6Parser11finish_call
FNDA:0,_RNvMs_NtCsqpd9PGyH9g_6parser6parserNtB4_6Parser11match_token
FNDA:0,_RNvMs_NtCsqpd9PGyH9g_6parser6parserNtB4_6Parser11parse_infix
FNDA:0,_RNvMs_NtCsqpd9PGyH9g_6parser6parserNtB4_6Parser12if_statement
FNDA:0,_RNvMs_NtCsqpd9PGyH9g_6parser6parserNtB4_6Parser12parse_prefix
FNDA:0,_RNvMs_NtCsqpd9PGyH9g_6parser6parserNtB4_6Parser15let_declaration
FNDA:0,_RNvMs_NtCsqpd9PGyH9g_6parser6parserNtB4_6Parser15peek_precedence
FNDA:0,_RNvMs_NtCsqpd9PGyH9g_6parser6parserNtB4_6Parser16enum_declaration
FNDA:0,_RNvMs_NtCsqpd9PGyH9g_6parser6parserNtB4_6Parser16parse_precedence
FNDA:0,_RNvMs_NtCsqpd9PGyH9g_6parser6parserNtB4_6Parser16token_precedence
FNDA:0,_RNvMs_NtCsqpd9PGyH9g_6parser6parserNtB4_6Parser18struct_declaration
FNDA:0,_RNvMs_NtCsqpd9PGyH9g_6parser6parserNtB4_6Parser20function_declaration
FNDA:0,_RNvMs_NtCsqpd9PGyH9g_6parser6parserNtB4_6Parser3new
FNDA:0,_RNvMs_NtCsqpd9PGyH9g_6parser6parserNtB4_6Parser4peek
FNDA:0,_RNvMs_NtCsqpd9PGyH9g_6parser6parserNtB4_6Parser5block
FNDA:0,_RNvMs_NtCsqpd9PGyH9g_6parser6parserNtB4_6Parser5check
FNDA:0,_RNvMs_NtCsqpd9PGyH9g_6parser6parserNtB4_6Parser5parse
FNDA:0,_RNvMs_NtCsqpd9PGyH9g_6parser6parserNtB4_6Parser6report
FNDA:0,_RNvMs_NtCsqpd9PGyH9g_6parser6parserNtB4_6Parser7advance
FNDA:0,_RNvMs_NtCsqpd9PGyH9g_6parser6parserNtB4_6Parser7consume
FNDA:0,_RNvMs_NtCsqpd9PGyH9g_6parser6parserNtB4_6Parser8previous
FNDA:0,_RNvMs_NtCsqpd9PGyH9g_6parser6parserNtB4_6Parser9is_at_end
FNDA:0,_RNvMs_NtCsqpd9PGyH9g_6parser6parserNtB4_6Parser9statement
FNF:27
FNH:21
DA:2,10
DA:6,10
DA:7,10
DA:8,10
DA:9,10
DA:11,74
DA:12,66
DA:13,66
DA:15,15
DA:16,2
DA:17,2
DA:18,2
DA:19,13
DA:21,13
DA:22,12
DA:23,12
DA:24,12
DA:25,13
DA:26,13
DA:27,13
DA:28,98
DA:29,96
DA:30,3
DA:32,14
DA:33,14
DA:35,79
DA:37,85
DA:39,13
DA:40,2
DA:41,2
DA:43,2
DA:44,2
DA:45,2
DA:46,2
DA:47,2
DA:48,11
DA:50,11
DA:52,11
DA:54,11
DA:55,11
DA:56,11
DA:58,5
DA:59,5
DA:60,5
DA:61,6
DA:63,11
DA:64,11
DA:65,11
DA:66,0
DA:68,0
DA:69,0
DA:72,11
DA:73,11
DA:74,11
DA:75,51
DA:76,3
DA:77,2
DA:78,2
DA:79,2
DA:81,1
DA:82,1
DA:84,1
DA:85,1
DA:86,1
DA:87,1
DA:88,1
DA:89,1
DA:91,48
DA:92,48
DA:93,48
DA:94,48
DA:96,10
DA:97,3
DA:98,7
DA:99,10
DA:100,10
DA:117,46
DA:118,46
DA:119,46
DA:121,35
DA:122,35
DA:123,124
DA:124,89
DA:125,89
DA:126,35
DA:127,35
DA:129,96
DA:130,96
DA:131,3
DA:132,93
DA:133,13
DA:134,80
DA:135,44
DA:136,36
DA:137,7
DA:138,29
DA:140,0
DA:141,0
DA:142,0
DA:144,29
DA:146,96
DA:148,3
DA:149,3
DA:150,3
DA:151,3
DA:152,3
DA:154,4
DA:155,4
DA:156,4
DA:157,4
DA:158,4
DA:159,3
DA:160,1
DA:162,0
DA:163,3
DA:164,3
DA:165,3
DA:167,13
DA:168,13
DA:169,13
DA:170,13
DA:171,16
DA:172,16
DA:173,16
DA:174,14
DA:175,14
DA:177,18
DA:178,18
DA:179,14
DA:180,4
DA:182,0
DA:183,14
DA:184,14
DA:186,2
DA:188,16
DA:189,16
DA:190,13
DA:191,3
DA:193,13
DA:194,13
DA:195,13
DA:197,29
DA:198,29
DA:199,29
DA:201,44
DA:202,44
DA:203,44
DA:205,0
DA:206,0
DA:207,0
DA:209,7
DA:210,7
DA:211,7
DA:213,90
DA:214,90
DA:215,90
DA:217,0
DA:218,0
DA:219,0
DA:221,0
DA:222,0
DA:223,0
DA:225,0
DA:226,0
DA:227,0
DA:229,0
DA:230,0
DA:231,0
DA:233,223
DA:234,223
DA:235,223
DA:237,288
DA:238,288
DA:239,0
DA:240,0
DA:241,0
DA:243,0
DA:245,10
DA:246,4
DA:247,108
DA:248,0
DA:249,6
DA:250,2
DA:251,158
DA:253,288
DA:255,689
DA:256,689
DA:257,191
DA:258,191
DA:260,498
DA:262,689
DA:264,349
DA:265,349
DA:266,0
DA:267,0
DA:268,0
DA:270,0
DA:271,349
DA:273,0
DA:274,0
DA:275,0
DA:277,1306
DA:278,1306
DA:279,2
DA:280,1304
DA:281,1304
DA:282,1306
DA:284,779
DA:285,779
DA:286,779
DA:287,779
DA:288,779
DA:289,779
DA:291,2242
DA:292,2242
DA:293,2242
DA:295,3772
DA:296,3772
DA:297,3772
DA:299,779
DA:300,779
DA:301,779
DA:303,22
DA:304,22
DA:305,22
DA:306,0
DA:307,0
DA:308,0
DA:309,0
DA:310,0
DA:311,0
DA:312,0
DA:313,0
DA:314,22
DA:315,22
DA:316,22
DA:317,0
DA:319,0
DA:320,0
DA:321,0
DA:322,0
DA:323,0
DA:324,0
DA:326,0
DA:327,0
DA:328,0
DA:329,0
DA:332,22
DA:334,22
DA:335,22
DA:337,7
DA:338,7
DA:339,7
DA:340,5
DA:341,5
DA:342,5
DA:344,0
DA:346,2
DA:347,7
DA:348,7
DA:349,7
DA:351,6
DA:352,6
DA:353,0
DA:355,6
DA:357,6
DA:358,6
DA:359,6
DA:360,6
DA:361,6
DA:362,6
DA:363,0
DA:365,1
DA:366,7
DA:367,7
DA:368,0
DA:370,7
DA:372,7
DA:373,7
DA:374,7
DA:375,7
DA:376,7
DA:377,7
BRF:0
BRH:0
LF:283
LH:225
end_of_record
SF:/workspaces/artcode/crates/parser/src/precedence.rs
FN:17,_RNvMNtCsqpd9PGyH9g_6parser10precedenceNtB2_10Precedence5as_u8
FNDA:0,_RNvMNtCsqpd9PGyH9g_6parser10precedenceNtB2_10Precedence5as_u8
FNF:1
FNH:0
DA:17,0
DA:18,0
DA:19,0
BRF:0
BRH:0
LF:3
LH:0
end_of_record
SF:/workspaces/artcode/crates/parser/src/statements.rs
FN:97,_RNvNtCs3zNnppwu0wb_6parser10statements12if_statement
FN:142,_RNvNtCs3zNnppwu0wb_6parser10statements13parse_pattern
FN:59,_RNvNtCs3zNnppwu0wb_6parser10statements15let_declaration
FN:122,_RNvNtCs3zNnppwu0wb_6parser10statements15match_statement
FN:222,_RNvNtCs3zNnppwu0wb_6parser10statements16is_literal_token
FN:226,_RNvNtCs3zNnppwu0wb_6parser10statements16return_statement
FN:111,_RNvNtCs3zNnppwu0wb_6parser10statements5block
FN:5,_RNvNtCs3zNnppwu0wb_6parser10statements9statement
FN:97,_RNvNtCsqpd9PGyH9g_6parser10statements12if_statement
FN:142,_RNvNtCsqpd9PGyH9g_6parser10statements13parse_pattern
FN:59,_RNvNtCsqpd9PGyH9g_6parser10statements15let_declaration
FN:122,_RNvNtCsqpd9PGyH9g_6parser10statements15match_statement
FN:222,_RNvNtCsqpd9PGyH9g_6parser10statements16is_literal_token
FN:226,_RNvNtCsqpd9PGyH9g_6parser10statements16return_statement
FN:111,_RNvNtCsqpd9PGyH9g_6parser10statements5block
FN:5,_RNvNtCsqpd9PGyH9g_6parser10statements9statement
FNDA:0,_RNvNtCs3zNnppwu0wb_6parser10statements12if_statement
FNDA:8,_RNvNtCs3zNnppwu0wb_6parser10statements13parse_pattern
FNDA:44,_RNvNtCs3zNnppwu0wb_6parser10statements15let_declaration
FNDA:3,_RNvNtCs3zNnppwu0wb_6parser10statements15match_statement
FNDA:3,_RNvNtCs3zNnppwu0wb_6parser10statements16is_literal_token
FNDA:2,_RNvNtCs3zNnppwu0wb_6parser10statements16return_statement
FNDA:7,_RNvNtCs3zNnppwu0wb_6parser10statements5block
FNDA:32,_RNvNtCs3zNnppwu0wb_6parser10statements9statement
FNDA:0,_RNvNtCsqpd9PGyH9g_6parser10statements12if_statement
FNDA:0,_RNvNtCsqpd9PGyH9g_6parser10statements13parse_pattern
FNDA:0,_RNvNtCsqpd9PGyH9g_6parser10statements15let_declaration
FNDA:0,_RNvNtCsqpd9PGyH9g_6parser10statements15match_statement
FNDA:0,_RNvNtCsqpd9PGyH9g_6parser10statements16is_literal_token
FNDA:0,_RNvNtCsqpd9PGyH9g_6parser10statements16return_statement
FNDA:0,_RNvNtCsqpd9PGyH9g_6parser10statements5block
FNDA:0,_RNvNtCsqpd9PGyH9g_6parser10statements9statement
FNF:8
FNH:7
DA:5,32
DA:6,32
DA:7,3
DA:8,29
DA:9,29
DA:10,0
DA:11,29
DA:12,29
DA:13,2
DA:14,27
DA:15,27
DA:16,0
DA:17,0
DA:18,27
DA:20,27
DA:22,27
DA:23,0
DA:24,0
DA:25,0
DA:26,0
DA:27,0
DA:28,0
DA:29,0
DA:30,0
DA:31,0
DA:32,0
DA:33,0
DA:35,0
DA:36,0
DA:37,0
DA:38,0
DA:39,0
DA:40,0
DA:43,0
DA:44,0
DA:45,0
DA:46,0
DA:47,0
DA:48,0
DA:49,0
DA:50,0
DA:51,0
DA:52,0
DA:53,27
DA:55,27
DA:56,27
DA:57,32
DA:59,44
DA:60,44
DA:62,44
DA:63,0
DA:65,44
DA:68,44
DA:69,44
DA:71,44
DA:72,3
DA:73,3
DA:74,6
DA:75,3
DA:76,3
DA:77,3
DA:78,3
DA:79,3
DA:80,3
DA:82,0
DA:83,0
DA:84,0
DA:85,0
DA:86,0
DA:87,0
DA:90,3
DA:91,3
DA:92,41
DA:93,44
DA:94,44
DA:95,44
DA:97,0
DA:98,0
DA:99,0
DA:101,0
DA:102,0
DA:103,0
DA:105,0
DA:108,0
DA:109,0
DA:111,7
DA:112,7
DA:113,14
DA:114,7
DA:115,7
DA:116,7
DA:117,7
DA:118,7
DA:119,7
DA:120,7
DA:122,3
DA:123,3
DA:124,3
DA:125,3
DA:126,3
DA:127,6
DA:128,3
DA:129,3
DA:131,3
DA:132,0
DA:133,3
DA:134,3
DA:135,3
DA:136,3
DA:138,3
DA:139,3
DA:140,3
DA:142,8
DA:143,8
DA:145,3
DA:146,3
DA:147,3
DA:148,3
DA:149,3
DA:151,5
DA:152,5
DA:153,3
DA:154,2
DA:156,0
DA:157,3
DA:158,3
DA:159,0
DA:160,3
DA:161,5
DA:162,1
DA:163,1
DA:164,4
DA:165,1
DA:166,3
DA:167,0
DA:168,0
DA:169,0
DA:170,0
DA:171,0
DA:173,0
DA:176,0
DA:177,0
DA:178,0
DA:179,0
DA:181,0
DA:182,0
DA:183,0
DA:184,0
DA:185,0
DA:186,0
DA:189,3
DA:190,3
DA:192,3
DA:193,0
DA:194,0
DA:195,0
DA:196,0
DA:197,0
DA:199,0
DA:200,0
DA:201,0
DA:202,0
DA:204,0
DA:205,0
DA:206,0
DA:207,0
DA:208,0
DA:210,3
DA:213,0
DA:214,0
DA:215,0
DA:216,0
DA:217,0
DA:218,0
DA:220,8
DA:222,3
DA:223,3
DA:224,3
DA:226,2
DA:227,2
DA:228,2
DA:229,0
DA:231,2
DA:233,2
DA:234,2
DA:235,2
BRF:0
BRH:0
LF:186
LH:100
end_of_record
SF:/workspaces/artcode/xtask/src/main.rs
FN:75,_RNCNvCsiNhHCmXz7zQ_5xtask4main0B3_
FN:41,_RNvCsiNhHCmXz7zQ_5xtask11scan_panics
FN:33,_RNvCsiNhHCmXz7zQ_5xtask3fmt
FN:29,_RNvCsiNhHCmXz7zQ_5xtask3run
FN:58,_RNvCsiNhHCmXz7zQ_5xtask4main
FN:49,_RNvCsiNhHCmXz7zQ_5xtask5visit
FN:38,_RNvCsiNhHCmXz7zQ_5xtask6clippy
FN:39,_RNvCsiNhHCmXz7zQ_5xtask8test_all
FNDA:0,_RNCNvCsiNhHCmXz7zQ_5xtask4main0B3_
FNDA:0,_RNvCsiNhHCmXz7zQ_5xtask11scan_panics
FNDA:0,_RNvCsiNhHCmXz7zQ_5xtask3fmt
FNDA:0,_RNvCsiNhHCmXz7zQ_5xtask3run
FNDA:0,_RNvCsiNhHCmXz7zQ_5xtask4main
FNDA:0,_RNvCsiNhHCmXz7zQ_5xtask5visit
FNDA:0,_RNvCsiNhHCmXz7zQ_5xtask6clippy
FNDA:0,_RNvCsiNhHCmXz7zQ_5xtask8test_all
FNF:8
FNH:0
DA:29,0
DA:30,0
DA:31,0
DA:33,0
DA:34,0
DA:35,0
DA:36,0
DA:38,0
DA:39,0
DA:41,0
DA:42,0
DA:43,0
DA:44,0
DA:45,0
DA:46,0
DA:47,0
DA:49,0
DA:50,0
DA:51,0
DA:52,0
DA:53,0
DA:54,0
DA:55,0
DA:56,0
DA:58,0
DA:59,0
DA:60,0
DA:61,0
DA:62,0
DA:63,0
DA:64,0
DA:65,0
DA:66,0
DA:67,0
DA:68,0
DA:70,0
DA:71,0
DA:72,0
DA:73,0
DA:74,0
DA:75,0
DA:76,0
DA:77,0
DA:78,0
DA:79,0
DA:81,0
DA:82,0
DA:83,0
DA:84,0
DA:85,0
DA:86,0
DA:87,0
DA:90,0
BRF:0
BRH:0
LF:54
LH:0
end_of_record